(lp0
I0
aF0.6000000000000001
aF1.2000000000000002
aF1.4400000000000002
aF2.04
aF2.64
aF3.24
aF3.8400000000000003
aF4.44
aF5.040000000000001
aF5.640000000000001
aF6.24
aF6.84
aF6.84
aF7.4399999999999995
aF7.68
aF7.92
aF8.08
aF8.68
aF9.28
aF9.879999999999999
aF9.879999999999999
aF10.479999999999999
aF10.719999999999999
aF10.879999999999999
aF11.04
aF11.04
aF11.2
aF11.36
aF11.959999999999999
aF12.559999999999999
aF13.159999999999998
aF13.319999999999999
aF13.319999999999999
aF13.919999999999998
aF14.519999999999998
aF14.519999999999998
aF15.119999999999997
aF15.359999999999998
aF15.599999999999998
aF15.839999999999998
aF16.439999999999998
aF17.04
aF17.64
aF17.8
aF17.96
aF18.12
aF18.28
aF18.44
aF19.040000000000003
aF19.040000000000003
aF19.040000000000003
aF19.640000000000004
aF19.640000000000004
aF20.240000000000006
aF20.240000000000006
aF20.840000000000007
aF20.840000000000007
aF21.44000000000001
aF21.44000000000001
aF22.04000000000001
aF22.20000000000001
aF22.20000000000001
aF22.20000000000001
aF22.36000000000001
aF22.52000000000001
aF22.68000000000001
aF23.280000000000012
aF23.880000000000013
aF24.480000000000015
aF25.080000000000016
aF25.320000000000014
aF25.480000000000015
aF25.480000000000015
aF26.080000000000016
aF26.080000000000016
aF26.240000000000016
aF26.840000000000018
aF27.000000000000018
aF27.160000000000018
aF27.320000000000018
aF27.480000000000018
aF28.08000000000002
aF28.24000000000002
aF28.40000000000002
aF28.56000000000002
aF28.56000000000002
aF28.72000000000002
aF28.88000000000002
aF29.48000000000002
aF30.080000000000023
aF30.080000000000023
aF30.680000000000025
aF30.840000000000025
aF31.000000000000025
aF31.000000000000025
aF31.160000000000025
aF31.320000000000025
aF31.480000000000025
aF32.08000000000003
aF32.68000000000003
aF32.68000000000003
aF32.92000000000003
aF33.08000000000003
aF33.24000000000002
aF33.40000000000002
aF34.00000000000002
aF34.00000000000002
aF34.60000000000002
aF35.200000000000024
aF35.200000000000024
aF35.800000000000026
aF35.800000000000026
aF36.40000000000003
aF37.00000000000003
aF38.40000000000003
aF39.800000000000026
aF39.96000000000002
aF40.12000000000002
aF40.72000000000002
aF40.88000000000002
aF41.04000000000001
aF41.640000000000015
aF42.240000000000016
aF42.40000000000001
aF42.56000000000001
aF42.720000000000006
aF42.88
aF43.04
aF43.199999999999996
aF43.8
aF43.959999999999994
aF44.11999999999999
aF44.71999999999999
aF45.31999999999999
aF45.47999999999999
aF45.639999999999986
aF45.79999999999998
aF45.95999999999998
aF45.95999999999998
aF46.119999999999976
aF46.35999999999998
aF46.519999999999975
aF46.519999999999975
aF46.67999999999997
aF46.91999999999997
aF47.159999999999975
aF47.39999999999998
aF47.63999999999998
aF47.799999999999976
aF47.95999999999997
aF48.11999999999997
aF48.71999999999997
aF49.31999999999997
aF49.91999999999997
aF50.07999999999997
aF50.23999999999997
aF50.39999999999996
aF50.639999999999965
aF50.87999999999997
aF51.11999999999997
aF51.279999999999966
aF51.43999999999996
aF51.59999999999996
aF51.83999999999996
aF52.07999999999996
aF52.319999999999965
aF52.47999999999996
aF52.63999999999996
aF52.63999999999996
aF52.87999999999996
aF53.11999999999996
aF53.359999999999964
aF53.51999999999996
aF53.67999999999996
aF53.839999999999954
aF54.079999999999956
aF54.23999999999995
aF54.479999999999954
aF54.63999999999995
aF54.79999999999995
aF54.959999999999944
aF54.959999999999944
aF54.959999999999944
aF55.11999999999994
aF55.27999999999994
aF55.87999999999994
aF56.039999999999935
aF56.19999999999993
aF56.35999999999993
aF56.35999999999993
aF56.35999999999993
aF56.59999999999993
aF56.83999999999993
aF57.079999999999934
aF57.319999999999936
aF57.55999999999994
aF57.79999999999994
aF58.03999999999994
aF58.279999999999944
aF58.43999999999994
aF58.59999999999994
aF58.59999999999994
aF59.19999999999994
aF59.19999999999994
aF59.79999999999994
aF60.39999999999994
aF60.99999999999994
aF61.599999999999945
aF62.199999999999946
aF62.43999999999995
aF62.67999999999995
aF62.91999999999995
aF63.159999999999954
aF63.31999999999995
aF63.91999999999995
aF63.91999999999995
aF64.51999999999995
aF64.67999999999995
aF65.27999999999994
aF65.51999999999994
aF66.11999999999993
aF66.71999999999993
aF67.31999999999992
aF67.91999999999992
aF68.51999999999991
aF69.1199999999999
aF69.7199999999999
aF70.3199999999999
aF70.91999999999989
aF71.51999999999988
aF72.11999999999988
aF72.35999999999987
aF72.59999999999987
aF72.83999999999986
aF72.99999999999986
aF73.59999999999985
aF73.75999999999985
aF73.91999999999985
aF74.07999999999984
aF74.67999999999984
aF74.83999999999983
aF75.43999999999983
aF76.03999999999982
aF76.27999999999982
aF76.51999999999981
aF76.7599999999998
aF76.9999999999998
aF77.2399999999998
aF77.39999999999979
aF77.99999999999979
aF78.59999999999978
aF79.19999999999978
aF79.35999999999977
aF79.35999999999977
aF79.59999999999977
aF79.83999999999976
aF79.99999999999976
aF80.59999999999975
aF80.59999999999975
aF81.19999999999975
aF81.79999999999974
aF82.03999999999974
aF82.19999999999973
aF82.35999999999973
aF82.51999999999973
aF82.67999999999972
aF82.67999999999972
aF82.67999999999972
aF82.67999999999972
aF82.67999999999972
aF82.83999999999972
aF83.07999999999971
aF83.31999999999971
aF83.5599999999997
aF83.7999999999997
aF83.9599999999997
aF84.55999999999969
aF85.15999999999968
aF85.75999999999968
aF86.35999999999967
aF86.95999999999967
aF87.19999999999966
aF87.43999999999966
aF87.59999999999965
aF88.19999999999965
aF88.35999999999964
aF88.51999999999964
aF88.67999999999964
aF88.83999999999963
aF88.99999999999963
aF89.15999999999963
aF89.15999999999963
aF89.31999999999962
aF89.55999999999962
aF89.79999999999961
aF90.03999999999961
aF90.1999999999996
aF90.3599999999996
aF90.5199999999996
aF90.7599999999996
aF90.99999999999959
aF91.23999999999958
aF91.39999999999958
aF91.39999999999958
aF91.63999999999957
aF91.79999999999957
aF91.95999999999957
aF92.11999999999956
aF92.27999999999956
aF92.51999999999956
aF92.75999999999955
aF92.91999999999955
aF93.07999999999954
aF93.07999999999954
aF93.23999999999954
aF93.83999999999953
aF93.99999999999953
aF94.15999999999953
aF94.31999999999952
aF94.55999999999952
aF94.79999999999951
aF94.95999999999951
aF95.11999999999951
aF95.3599999999995
aF95.5999999999995
aF95.83999999999949
aF95.99999999999949
aF95.99999999999949
aF96.23999999999948
aF96.47999999999948
aF96.71999999999947
aF96.95999999999947
aF97.19999999999946
aF97.35999999999946
aF97.35999999999946
aF97.59999999999945
aF97.75999999999945
aF97.91999999999945
aF98.07999999999944
aF98.23999999999944
aF98.47999999999944
aF98.71999999999943
aF98.87999999999943
aF99.47999999999942
aF100.07999999999942
aF100.23999999999941
aF100.47999999999941
aF100.6399999999994
aF100.7999999999994
aF100.9599999999994
aF101.55999999999939
aF102.15999999999939
aF102.15999999999939
aF102.75999999999938
aF103.35999999999937
aF103.95999999999937
aF103.95999999999937
aF104.55999999999936
aF104.79999999999936
aF105.03999999999935
aF105.27999999999935
aF105.43999999999934
aF106.03999999999934
aF106.19999999999933
aF106.35999999999933
aF106.35999999999933
aF106.51999999999933
aF107.11999999999932
aF107.27999999999932
aF107.43999999999932
aF107.59999999999931
aF107.8399999999993
aF108.0799999999993
aF108.3199999999993
aF108.4799999999993
aF109.07999999999929
aF109.67999999999928
aF109.67999999999928
aF110.27999999999928
aF110.27999999999928
aF110.87999999999927
aF110.87999999999927
aF111.47999999999927
aF111.63999999999926
aF111.87999999999926
aF112.03999999999925
aF112.19999999999925
aF112.35999999999925
aF112.59999999999924
aF112.83999999999924
aF113.07999999999923
aF113.23999999999923
aF113.83999999999922
aF114.43999999999922
aF114.59999999999921
aF114.75999999999921
aF115.3599999999992
aF115.5199999999992
aF115.5199999999992
aF116.1199999999992
aF116.1199999999992
aF116.1199999999992
aF116.35999999999919
aF116.51999999999919
aF117.11999999999918
aF117.27999999999918
aF117.87999999999917
aF118.11999999999917
aF118.35999999999916
aF118.51999999999916
aF119.11999999999915
aF119.71999999999915
aF119.71999999999915
aF120.31999999999914
aF120.31999999999914
aF120.31999999999914
aF120.47999999999914
aF121.07999999999913
aF121.23999999999913
aF121.39999999999912
aF121.99999999999912
aF122.15999999999912
aF122.31999999999911
aF122.47999999999911
aF123.0799999999991
aF123.6799999999991
aF123.8399999999991
aF123.99999999999909
aF124.15999999999909
aF124.31999999999908
aF124.47999999999908
aF125.07999999999907
aF125.67999999999907
aF125.67999999999907
aF126.27999999999906
aF126.43999999999906
aF126.59999999999906
aF127.19999999999905
aF127.19999999999905
aF127.79999999999905
aF128.39999999999904
aF128.55999999999904
aF128.71999999999903
aF128.87999999999903
aF129.47999999999902
aF129.63999999999902
aF130.23999999999901
aF130.839999999999
aF130.999999999999
aF131.159999999999
aF131.319999999999
aF131.919999999999
aF132.519999999999
aF132.67999999999898
aF132.83999999999898
aF132.99999999999898
aF133.15999999999897
aF133.31999999999897
aF133.91999999999896
aF134.07999999999896
aF134.23999999999896
aF134.39999999999895
aF134.99999999999895
aF135.59999999999894
aF135.75999999999894
aF135.91999999999894
aF136.07999999999893
aF136.67999999999893
aF136.83999999999892
aF137.43999999999892
aF137.59999999999891
aF137.7599999999989
aF137.9199999999989
aF138.5199999999989
aF139.1199999999989
aF139.7199999999989
aF139.9599999999989
aF140.5599999999989
aF141.1599999999989
aF141.75999999999888
aF142.35999999999888
aF142.95999999999887
aF143.55999999999887
aF143.79999999999887
aF145.19999999999888
aF146.5999999999989
aF146.75999999999888
aF146.75999999999888
aF146.91999999999888
aF147.51999999999887
aF147.51999999999887
aF148.11999999999887
aF148.71999999999886
aF148.71999999999886
aF149.31999999999886
aF149.47999999999885
aF149.47999999999885
aF149.63999999999885
aF150.23999999999884
aF150.47999999999885
aF151.07999999999885
aF151.67999999999884
aF152.27999999999884
aF152.87999999999883
aF154.27999999999884
aF155.67999999999884
aF155.83999999999884
aF155.99999999999883
aF156.59999999999883
aF157.19999999999882
aF157.35999999999882
aF157.95999999999881
aF158.1199999999988
aF158.2799999999988
aF158.4399999999988
aF158.5999999999988
aF158.5999999999988
aF158.7599999999988
aF158.9199999999988
aF159.1599999999988
aF159.3999999999988
aF159.5599999999988
aF159.79999999999882
aF159.95999999999881
aF159.95999999999881
aF160.1199999999988
aF160.1199999999988
aF160.2799999999988
aF160.4399999999988
aF160.5999999999988
aF161.1999999999988
aF161.3599999999988
aF161.9599999999988
aF162.11999999999878
aF162.27999999999878
aF162.43999999999878
aF162.67999999999878
aF162.9199999999988
aF163.0799999999988
aF163.2399999999988
aF163.2399999999988
aF163.2399999999988
aF163.4799999999988
aF163.7199999999988
aF163.8799999999988
aF164.0399999999988
aF164.6399999999988
aF164.6399999999988
aF165.2399999999988
aF165.83999999999878
aF165.99999999999878
aF166.15999999999877
aF166.15999999999877
aF166.15999999999877
aF166.39999999999878
aF166.6399999999988
aF166.8799999999988
aF167.1199999999988
aF167.35999999999882
aF167.51999999999882
aF167.6799999999988
aF167.8399999999988
aF167.9999999999988
aF167.9999999999988
aF167.9999999999988
aF168.1599999999988
aF168.3199999999988
aF168.9199999999988
aF168.9199999999988
aF169.5199999999988
aF169.5199999999988
aF170.11999999999878
aF170.11999999999878
aF170.71999999999878
aF170.71999999999878
aF170.71999999999878
aF170.71999999999878
aF170.87999999999877
aF171.03999999999877
aF171.27999999999878
aF171.5199999999988
aF171.7599999999988
aF172.3599999999988
aF172.5999999999988
aF173.1999999999988
aF173.7999999999988
aF174.39999999999878
aF174.99999999999878
aF175.59999999999877
aF176.19999999999877
aF176.79999999999876
aF177.03999999999877
aF177.63999999999876
aF177.79999999999876
aF178.03999999999877
aF178.27999999999878
aF178.5199999999988
aF178.7599999999988
aF178.9199999999988
aF179.0799999999988
aF179.3199999999988
aF179.5599999999988
aF179.79999999999882
aF180.03999999999883
aF180.27999999999884
aF180.51999999999884
aF180.75999999999885
aF180.99999999999886
aF181.23999999999887
aF181.47999999999888
aF181.7199999999989
aF181.9599999999989
aF182.1199999999989
aF182.3599999999989
aF182.59999999999891
aF182.83999999999892
aF182.99999999999892
aF183.15999999999892
aF183.3199999999989
aF183.4799999999989
aF183.71999999999892
aF183.95999999999893
aF184.19999999999894
aF184.43999999999895
aF184.67999999999896
aF184.91999999999896
aF185.15999999999897
aF185.31999999999897
aF185.31999999999897
aF185.55999999999898
aF185.799999999999
aF186.039999999999
aF186.279999999999
aF186.51999999999902
aF186.75999999999902
aF186.99999999999903
aF187.23999999999904
aF187.47999999999905
aF187.71999999999906
aF187.95999999999907
aF188.19999999999908
aF188.35999999999908
aF188.51999999999907
aF188.67999999999907
aF188.91999999999908
aF189.1599999999991
aF189.31999999999908
aF189.47999999999908
aF189.63999999999908
aF189.8799999999991
aF190.1199999999991
aF190.3599999999991
aF190.5199999999991
aF190.6799999999991
aF190.8399999999991
aF191.4399999999991
aF192.03999999999908
aF192.03999999999908
aF192.63999999999908
aF193.23999999999907
aF193.83999999999907
aF194.43999999999906
aF194.67999999999907
aF194.91999999999908
aF195.07999999999907
aF195.31999999999908
aF195.91999999999908
aF196.51999999999907
aF197.11999999999907
aF197.71999999999906
aF198.31999999999906
aF198.91999999999905
aF199.15999999999906
aF199.75999999999905
aF200.35999999999905
aF200.95999999999904
aF201.19999999999905
aF201.43999999999906
aF201.67999999999907
aF201.91999999999908
aF202.51999999999907
aF203.11999999999907
aF203.71999999999906
aF204.31999999999906
aF204.91999999999905
aF205.51999999999904
aF206.11999999999904
aF206.71999999999903
aF207.31999999999903
aF207.91999999999902
aF208.15999999999903
aF208.39999999999904
aF208.63999999999905
aF208.87999999999906
aF209.03999999999905
aF209.03999999999905
aF209.27999999999906
aF209.51999999999907
aF209.67999999999907
aF209.83999999999907
aF210.43999999999906
aF210.43999999999906
aF211.03999999999905
aF211.27999999999906
aF211.51999999999907
aF211.67999999999907
aF212.27999999999906
aF212.27999999999906
aF212.87999999999906
aF212.87999999999906
aF213.47999999999905
aF213.63999999999905
aF213.79999999999905
aF213.79999999999905
aF213.95999999999904
aF214.19999999999905
aF214.43999999999906
aF214.67999999999907
aF214.83999999999907
aF214.99999999999906
aF215.59999999999906
aF215.75999999999905
aF215.91999999999905
aF216.07999999999905
aF216.67999999999904
aF217.27999999999903
aF217.27999999999903
aF217.87999999999903
aF217.87999999999903
aF218.47999999999902
aF219.07999999999902
aF219.679999999999
aF220.279999999999
aF220.879999999999
aF221.479999999999
aF222.079999999999
aF222.67999999999898
aF223.27999999999898
aF223.87999999999897
aF224.47999999999897
aF225.07999999999896
aF225.67999999999896
aF226.27999999999895
aF226.87999999999894
aF227.47999999999894
aF228.07999999999893
aF228.23999999999893
aF228.39999999999893
aF228.55999999999892
aF228.55999999999892
aF228.71999999999892
aF228.95999999999893
aF229.19999999999894
aF229.35999999999893
aF229.59999999999894
aF229.83999999999895
aF230.07999999999896
aF230.31999999999897
aF230.47999999999897
aF230.63999999999896
aF231.23999999999896
aF231.23999999999896
aF231.83999999999895
aF231.83999999999895
aF232.43999999999895
aF232.43999999999895
aF233.03999999999894
aF233.03999999999894
aF233.63999999999893
aF233.87999999999894
aF234.47999999999894
aF235.07999999999893
aF235.67999999999893
aF236.27999999999892
aF236.87999999999892
aF236.87999999999892
aF237.4799999999989
aF237.4799999999989
aF238.0799999999989
aF238.0799999999989
aF238.6799999999989
aF238.6799999999989
aF239.2799999999989
aF239.2799999999989
aF239.8799999999989
aF239.8799999999989
aF240.47999999999888
aF240.47999999999888
aF241.07999999999888
aF241.07999999999888
aF241.67999999999887
aF241.67999999999887
aF242.27999999999886
aF242.27999999999886
aF242.87999999999886
aF243.47999999999885
aF243.71999999999886
aF243.95999999999887
aF244.19999999999888
aF244.35999999999888
aF244.95999999999887
aF244.95999999999887
aF245.55999999999887
aF246.15999999999886
aF246.31999999999886
aF246.91999999999885
aF247.07999999999885
aF247.67999999999884
aF248.27999999999884
aF248.27999999999884
aF248.87999999999883
aF249.47999999999882
aF250.07999999999882
aF250.6799999999988
aF250.6799999999988
aF251.2799999999988
aF251.51999999999882
aF251.6799999999988
aF252.2799999999988
aF252.2799999999988
aF252.8799999999988
aF253.0399999999988
aF253.1999999999988
aF253.1999999999988
aF253.7999999999988
aF253.7999999999988
aF254.39999999999878
aF254.39999999999878
aF254.99999999999878
aF254.99999999999878
aF255.59999999999877
aF255.59999999999877
aF256.1999999999988
aF256.1999999999988
aF256.7999999999988
aF256.7999999999988
aF257.39999999999884
aF257.99999999999886
aF258.5999999999989
aF259.1999999999989
aF259.4399999999989
aF259.6799999999989
aF259.83999999999895
aF260.439999999999
aF261.039999999999
aF261.639999999999
aF262.23999999999904
aF262.47999999999905
aF263.0799999999991
aF263.6799999999991
aF263.6799999999991
aF264.2799999999991
aF264.43999999999915
aF264.59999999999917
aF264.7599999999992
aF264.9999999999992
aF265.2399999999992
aF265.39999999999924
aF265.55999999999926
aF265.55999999999926
aF265.7199999999993
aF265.9599999999993
aF266.1999999999993
aF266.4399999999993
aF266.59999999999934
aF267.19999999999936
aF267.7999999999994
aF268.3999999999994
aF268.6399999999994
aF269.23999999999944
aF269.83999999999946
aF270.4399999999995
aF271.0399999999995
aF271.2799999999995
aF271.87999999999954
aF272.11999999999955
aF272.7199999999996
aF273.3199999999996
aF273.9199999999996
aF274.07999999999964
aF274.31999999999965
aF274.4799999999997
aF275.0799999999997
aF275.6799999999997
aF275.83999999999975
aF276.07999999999976
aF276.31999999999977
aF276.5599999999998
aF276.7199999999998
aF276.8799999999998
aF277.47999999999985
aF277.71999999999986
aF278.3199999999999
aF278.9199999999999
aF279.5199999999999
aF280.11999999999995
aF280.71999999999997
aF281.32
aF281.56
aF282.16
aF282.76000000000005
aF282.76000000000005
aF283.36000000000007
aF283.36000000000007
aF283.9600000000001
aF283.9600000000001
aF284.5600000000001
aF284.5600000000001
aF285.16000000000014
aF285.32000000000016
aF285.32000000000016
aF285.5600000000002
aF285.8000000000002
aF286.0400000000002
aF286.2000000000002
aF286.80000000000024
aF287.40000000000026
aF287.64000000000027
aF288.2400000000003
aF288.4000000000003
aF288.4000000000003
aF289.00000000000034
aF289.60000000000036
aF290.2000000000004
aF290.2000000000004
aF290.8000000000004
aF290.8000000000004
aF291.40000000000043
aF292.00000000000045
aF292.00000000000045
aF292.6000000000005
aF292.6000000000005
aF293.2000000000005
aF293.2000000000005
aF293.8000000000005
aF294.04000000000053
aF294.20000000000056
aF294.8000000000006
aF294.8000000000006
aF295.4000000000006
aF295.4000000000006
aF296.0000000000006
aF296.60000000000065
aF297.20000000000067
aF297.20000000000067
aF297.8000000000007
aF298.4000000000007
aF299.00000000000074
aF299.60000000000076
aF299.7600000000008
aF299.9200000000008
aF300.52000000000083
aF301.12000000000086
aF301.2800000000009
aF301.4400000000009
aF301.60000000000093
aF301.60000000000093
aF301.76000000000096
aF302.00000000000097
aF302.240000000001
aF302.400000000001
aF303.000000000001
aF303.16000000000105
aF303.76000000000107
aF303.9200000000011
aF304.0800000000011
aF304.0800000000011
aF304.24000000000115
aF304.48000000000116
aF304.6400000000012
aF304.6400000000012
aF304.8000000000012
aF305.4000000000012
aF305.56000000000125
aF306.1600000000013
aF306.1600000000013
aF306.7600000000013
aF306.9200000000013
aF307.08000000000135
aF307.2400000000014
aF307.4000000000014
aF307.4000000000014
aF307.5600000000014
aF307.80000000000143
aF308.04000000000144
aF308.28000000000145
aF308.4400000000015
aF308.6000000000015
aF309.2000000000015
aF309.36000000000155
aF309.96000000000157
aF310.1200000000016
aF310.2800000000016
aF310.44000000000165
aF310.68000000000166
aF310.92000000000166
aF311.1600000000017
aF311.3200000000017
aF311.4800000000017
aF311.4800000000017
aF311.72000000000173
aF311.96000000000174
aF312.12000000000177
aF312.12000000000177
aF312.2800000000018
aF312.5200000000018
aF312.7600000000018
aF313.0000000000018
aF313.16000000000184
aF313.32000000000187
aF313.9200000000019
aF314.5200000000019
aF315.12000000000194
aF315.72000000000196
aF316.320000000002
aF317.72000000000196
aF317.880000000002
aF318.480000000002
aF319.08000000000203
aF319.68000000000205
aF320.2800000000021
aF320.8800000000021
aF321.4800000000021
aF322.08000000000214
aF322.32000000000215
aF322.56000000000216
aF322.7200000000022
aF323.3200000000022
aF323.48000000000224
aF324.08000000000226
aF324.6800000000023
aF324.9200000000023
aF325.5200000000023
aF326.12000000000234
aF326.36000000000234
aF326.96000000000237
aF327.5600000000024
aF327.8000000000024
aF328.4000000000024
aF329.00000000000244
aF329.24000000000245
aF329.8400000000025
aF330.4400000000025
aF331.0400000000025
aF331.64000000000254
aF331.64000000000254
aF332.24000000000257
aF333.64000000000254
aF335.0400000000025
aF336.4400000000025
aF336.6800000000025
aF336.84000000000253
aF337.00000000000256
aF337.1600000000026
aF337.7600000000026
aF338.36000000000263
aF338.96000000000265
aF339.5600000000027
aF340.1600000000027
aF340.4000000000027
aF341.00000000000273
aF341.60000000000275
aF341.84000000000276
aF342.4400000000028
aF343.0400000000028
aF343.2800000000028
aF343.88000000000284
aF344.48000000000286
aF344.48000000000286
aF345.0800000000029
aF345.3200000000029
aF345.9200000000029
aF346.1600000000029
aF346.32000000000295
aF346.920000000003
aF346.920000000003
aF347.520000000003
aF347.520000000003
aF348.120000000003
aF348.120000000003
aF348.72000000000304
aF348.72000000000304
aF349.32000000000306
aF349.32000000000306
aF349.5600000000031
aF350.1600000000031
aF350.7600000000031
aF351.36000000000314
aF351.96000000000316
aF351.96000000000316
aF352.2000000000032
aF352.8000000000032
aF352.8000000000032
aF352.8000000000032
aF353.0400000000032
aF353.6400000000032
aF354.24000000000325
aF354.48000000000326
aF354.72000000000327
aF354.8800000000033
aF355.0400000000033
aF355.64000000000334
aF355.80000000000337
aF355.9600000000034
aF356.1200000000034
aF356.28000000000344
aF356.44000000000347
aF356.6000000000035
aF357.2000000000035
aF357.80000000000354
aF358.40000000000356
aF359.0000000000036
aF359.6000000000036
aF359.6000000000036
aF360.2000000000036
aF360.44000000000364
aF361.04000000000366
aF361.6400000000037
aF362.2400000000037
aF362.8400000000037
aF363.44000000000375
aF363.44000000000375
aF364.0400000000038
aF364.6400000000038
aF365.2400000000038
aF365.2400000000038
aF365.84000000000384
aF366.44000000000386
aF366.44000000000386
aF367.0400000000039
aF367.0400000000039
aF367.6400000000039
aF369.0400000000039
aF369.2000000000039
aF369.4400000000039
aF369.60000000000394
aF369.76000000000397
aF369.920000000004
aF370.080000000004
aF370.080000000004
aF370.080000000004
aF370.080000000004
aF370.080000000004
aF370.080000000004
aF370.080000000004
aF370.32000000000403
aF370.56000000000404
aF370.80000000000405
aF371.04000000000406
aF371.28000000000407
aF371.5200000000041
aF371.7600000000041
aF372.0000000000041
aF372.2400000000041
aF372.4800000000041
aF372.7200000000041
aF372.96000000000413
aF373.20000000000414
aF373.80000000000416
aF374.04000000000417
aF374.6400000000042
aF375.2400000000042
aF375.84000000000424
aF376.44000000000426
aF377.0400000000043
aF377.6400000000043
aF378.24000000000433
aF378.84000000000435
aF379.4400000000044
aF380.0400000000044
aF380.6400000000044
aF381.24000000000444
aF381.84000000000447
aF382.0800000000045
aF382.6800000000045
aF382.9200000000045
aF383.52000000000453
aF384.12000000000455
aF384.36000000000456
aF384.9600000000046
aF385.5600000000046
aF386.16000000000463
aF386.76000000000465
aF387.3600000000047
aF387.9600000000047
aF388.5600000000047
aF389.16000000000474
aF389.76000000000477
aF390.3600000000048
aF390.9600000000048
aF391.56000000000483
aF392.16000000000486
aF392.7600000000049
aF393.3600000000049
aF393.9600000000049
aF394.20000000000493
aF394.44000000000494
aF394.60000000000497
aF394.760000000005
aF395.000000000005
aF395.160000000005
aF395.76000000000505
aF396.3600000000051
aF396.3600000000051
aF396.9600000000051
aF397.5600000000051
aF398.16000000000514
aF398.76000000000516
aF399.3600000000052
aF399.6000000000052
aF400.2000000000052
aF400.4400000000052
aF400.68000000000524
aF401.28000000000526
aF401.8800000000053
aF402.4800000000053
aF403.0800000000053
aF403.68000000000535
aF405.0800000000053
aF406.4800000000053
aF406.64000000000533
aF406.80000000000535
aF407.4000000000054
aF408.0000000000054
aF408.6000000000054
aF409.20000000000545
aF409.80000000000547
aF410.4000000000055
aF411.0000000000055
aF411.60000000000554
aF411.84000000000555
aF412.08000000000555
aF412.32000000000556
aF412.9200000000056
aF413.5200000000056
aF414.12000000000563
aF414.72000000000565
aF414.8800000000057
aF415.1200000000057
aF411.3200000000057
aF411.9200000000057
aF411.9200000000057
aF412.5200000000057
aF412.68000000000575
aF413.28000000000577
aF413.8800000000058
aF414.0400000000058
aF414.20000000000584
aF414.80000000000587
aF414.80000000000587
aF415.4000000000059
aF415.5600000000059
aF415.5600000000059
aF415.5600000000059
aF415.72000000000594
aF415.88000000000596
aF416.480000000006
aF416.480000000006
aF417.080000000006
aF417.080000000006
aF417.68000000000603
aF417.68000000000603
aF418.28000000000605
aF418.8800000000061
aF419.4800000000061
aF420.0800000000061
aF420.68000000000615
aF421.28000000000617
aF421.8800000000062
aF422.4800000000062
aF422.64000000000624
aF423.24000000000626
aF423.48000000000627
aF424.0800000000063
aF424.6800000000063
aF424.9200000000063
aF425.52000000000635
aF426.12000000000637
aF426.7200000000064
aF427.3200000000064
aF427.48000000000644
aF428.08000000000646
aF428.6800000000065
aF429.2800000000065
aF429.2800000000065
aF429.5200000000065
aF430.12000000000654
aF430.72000000000656
aF430.72000000000656
aF431.3200000000066
aF431.9200000000066
aF432.52000000000663
aF433.12000000000666
aF433.2800000000067
aF433.8800000000067
aF434.4800000000067
aF435.08000000000675
aF435.68000000000677
aF435.8400000000068
aF436.4400000000068
aF437.04000000000684
aF437.64000000000686
aF438.2400000000069
aF438.4800000000069
aF439.0800000000069
aF439.68000000000694
aF439.84000000000697
aF440.080000000007
aF440.680000000007
aF441.280000000007
aF441.44000000000705
aF442.04000000000707
aF442.04000000000707
aF442.6400000000071
aF443.2400000000071
aF444.6400000000071
aF444.8000000000071
aF444.96000000000714
aF445.56000000000716
aF446.1600000000072
aF446.7600000000072
aF447.36000000000723
aF447.96000000000726
aF449.36000000000723
aF450.7600000000072
aF452.1600000000072
aF452.4000000000072
aF453.0000000000072
aF453.60000000000724
aF454.20000000000726
aF454.8000000000073
aF455.4000000000073
aF455.6400000000073
aF455.8800000000073
aF456.48000000000735
aF457.0800000000074
aF457.6800000000074
aF458.2800000000074
aF458.88000000000744
aF459.48000000000746
aF460.0800000000075
aF460.6800000000075
aF461.28000000000753
aF461.44000000000756
aF461.68000000000757
aF462.2800000000076
aF462.8800000000076
aF463.48000000000764
aF464.08000000000766
aF464.32000000000767
aF464.5600000000077
aF464.8000000000077
aF465.0400000000077
aF465.2800000000077
aF465.5200000000077
aF465.7600000000077
aF466.00000000000773
aF466.16000000000776
aF466.3200000000078
aF466.9200000000078
aF467.5200000000078
aF468.12000000000785
aF468.2800000000079
aF468.2800000000079
aF468.8800000000079
aF469.4800000000079
aF470.08000000000794
aF471.4800000000079
aF472.8800000000079
aF473.0400000000079
aF474.4400000000079
aF474.6000000000079
aF475.20000000000795
aF475.80000000000797
aF476.400000000008
aF477.000000000008
aF477.60000000000804
aF478.20000000000806
aF478.8000000000081
aF479.0400000000081
aF479.6400000000081
aF480.24000000000814
aF480.40000000000816
aF480.6400000000082
aF481.2400000000082
aF481.8400000000082
aF482.00000000000824
aF482.24000000000825
aF482.8400000000083
aF483.4400000000083
aF484.0400000000083
aF484.0400000000083
aF484.64000000000834
aF484.80000000000837
aF485.0400000000084
aF485.6400000000084
aF485.6400000000084
aF485.6400000000084
aF486.2400000000084
aF486.48000000000843
aF487.08000000000845
aF487.08000000000845
aF487.08000000000845
aF487.6800000000085
aF487.6800000000085
aF488.2800000000085
aF488.2800000000085
aF488.8800000000085
aF489.12000000000853
aF489.72000000000855
aF489.96000000000856
aF490.5600000000086
aF491.1600000000086
aF491.76000000000863
aF492.00000000000864
aF492.60000000000866
aF492.8400000000087
aF493.0000000000087
aF493.1600000000087
aF493.32000000000875
aF493.4800000000088
aF493.7200000000088
aF493.9600000000088
aF494.2000000000088
aF494.4400000000088
aF494.60000000000883
aF494.76000000000886
aF494.9200000000089
aF495.1600000000089
aF495.4000000000089
aF495.5600000000089
aF496.16000000000895
aF496.16000000000895
aF496.320000000009
aF496.480000000009
aF496.640000000009
aF496.640000000009
aF496.80000000000905
aF497.04000000000906
aF497.28000000000907
aF497.8800000000091
aF498.0400000000091
aF498.64000000000914
aF498.64000000000914
aF499.24000000000916
aF499.8400000000092
aF500.4400000000092
aF500.4400000000092
aF501.04000000000923
aF501.64000000000925
aF501.64000000000925
aF502.2400000000093
aF502.8400000000093
aF502.8400000000093
aF503.4400000000093
aF504.04000000000934
aF504.04000000000934
aF504.64000000000937
aF505.2400000000094
aF505.4800000000094
aF506.0800000000094
aF506.68000000000944
aF506.84000000000947
aF507.4400000000095
aF507.4400000000095
aF507.4400000000095
aF508.0400000000095
aF508.0400000000095
aF508.64000000000954
aF508.88000000000955
aF509.48000000000957
aF510.0800000000096
aF510.6800000000096
aF511.28000000000964
aF511.28000000000964
aF511.88000000000966
aF512.4800000000097
aF513.0800000000097
aF513.6800000000097
aF515.0800000000097
aF515.2400000000097
aF516.6400000000096
aF518.0400000000096
aF519.4400000000096
aF519.6800000000096
aF519.8400000000096
aF520.4400000000096
aF520.6000000000096
aF520.7600000000095
aF521.3600000000096
aF521.5200000000095
aF521.6800000000095
aF521.9200000000095
aF522.1600000000095
aF522.4000000000095
aF522.5600000000095
aF522.7200000000095
aF522.8800000000094
aF523.1200000000094
aF523.2800000000094
aF523.4400000000094
aF524.0400000000094
aF524.6400000000094
aF524.8800000000094
aF525.4800000000095
aF526.0800000000095
aF526.6800000000095
aF527.2800000000095
aF527.8800000000095
aF528.4800000000096
aF529.0800000000096
aF529.6800000000096
aF530.2800000000096
aF530.8800000000097
aF531.1200000000097
aF531.7200000000097
aF532.3200000000097
aF532.9200000000097
aF533.5200000000098
aF534.1200000000098
aF534.7200000000098
aF535.3200000000098
aF535.5600000000098
aF535.8000000000098
aF536.0400000000099
aF536.2800000000099
aF536.5200000000099
aF536.7600000000099
aF537.0000000000099
aF537.1600000000099
aF537.7600000000099
aF538.3600000000099
aF538.9600000000099
aF540.3600000000099
aF540.6000000000099
aF541.2000000000099
aF541.80000000001
aF542.04000000001
aF542.2000000000099
aF542.80000000001
aF543.40000000001
aF543.64000000001
aF539.84000000001
aF540.4400000000101
aF540.6800000000101
aF540.9200000000101
aF541.1600000000101
aF541.32000000001
aF541.32000000001
aF541.48000000001
aF542.08000000001
aF542.6800000000101
aF542.84000000001
aF543.4400000000101
aF543.4400000000101
aF544.0400000000101
aF544.0400000000101
aF544.6400000000101
aF544.6400000000101
aF545.2400000000101
aF545.4800000000101
aF546.0800000000102
aF546.0800000000102
aF546.6800000000102
aF547.2800000000102
aF547.8800000000102
aF548.4800000000103
aF549.0800000000103
aF549.6800000000103
aF550.2800000000103
aF550.8800000000103
aF551.4800000000104
aF551.7200000000104
aF551.9600000000104
aF552.2000000000104
aF552.4400000000104
aF552.6000000000104
aF553.2000000000104
aF553.8000000000104
aF555.2000000000104
aF555.4400000000104
aF555.6800000000104
aF555.9200000000104
aF556.5200000000104
aF557.1200000000105
aF557.7200000000105
aF558.3200000000105
aF558.9200000000105
aF559.5200000000106
aF560.1200000000106
aF560.7200000000106
aF562.1200000000106
aF563.5200000000106
aF563.6800000000105
aF563.8400000000105
aF564.4400000000105
aF565.0400000000105
aF565.2800000000105
aF565.5200000000106
aF565.7600000000106
aF566.0000000000106
aF566.1600000000105
aF566.1600000000105
aF566.3200000000105
aF566.9200000000105
aF567.0800000000105
aF567.0800000000105
aF567.2400000000105
aF567.8400000000105
aF568.0800000000105
aF568.6800000000105
aF568.8400000000105
aF569.0000000000105
aF569.1600000000104
aF569.7600000000105
aF570.3600000000105
aF570.9600000000105
aF571.5600000000105
aF572.1600000000105
aF572.7600000000106
aF573.3600000000106
aF573.9600000000106
aF574.1200000000106
aF574.2800000000105
aF574.4400000000105
aF575.0400000000105
aF575.0400000000105
aF575.6400000000106
aF575.6400000000106
aF576.2400000000106
aF576.2400000000106
aF576.8400000000106
aF576.8400000000106
aF577.4400000000106
aF577.6800000000106
aF577.8400000000106
aF578.4400000000106
aF578.4400000000106
aF579.0400000000107
aF579.0400000000107
aF579.6400000000107
aF579.8000000000106
aF579.9600000000106
aF580.1200000000106
aF580.7200000000106
aF580.8800000000106
aF581.1200000000106
aF581.2800000000105
aF581.4400000000105
aF581.6000000000105
aF582.2000000000105
aF582.4400000000105
aF583.0400000000105
aF583.6400000000106
aF583.8800000000106
aF584.4800000000106
aF585.0800000000106
aF586.4800000000106
aF587.8800000000106
aF588.1200000000106
aF588.3600000000106
aF588.6000000000106
aF588.8400000000106
aF589.0800000000106
aF589.3200000000106
aF589.4800000000106
aF589.6400000000106
aF589.8800000000106
aF590.1200000000106
aF590.2800000000105
aF590.5200000000106
aF590.7600000000106
aF591.0000000000106
aF591.6000000000106
aF592.2000000000106
aF592.8000000000106
aF593.4000000000107
aF594.0000000000107
aF594.6000000000107
aF595.2000000000107
aF595.8000000000108
aF596.4000000000108
aF597.0000000000108
aF597.6000000000108
aF598.2000000000108
aF598.3600000000108
aF598.3600000000108
aF598.9600000000108
aF599.1200000000108
aF599.3600000000108
aF599.9600000000108
aF600.5600000000109
aF601.1600000000109
aF601.7600000000109
aF602.3600000000109
aF602.960000000011
aF603.560000000011
aF604.160000000011
aF604.760000000011
aF605.360000000011
aF605.600000000011
aF605.8400000000111
aF606.0800000000111
aF606.3200000000111
aF606.480000000011
aF607.0800000000111
aF607.6800000000111
aF608.2800000000111
aF608.8800000000111
aF609.4800000000112
aF610.0800000000112
aF611.4800000000112
aF611.6400000000111
aF612.2400000000112
aF612.8400000000112
aF613.0800000000112
aF613.3200000000112
aF613.5600000000112
aF613.7200000000112
aF613.8800000000111
aF614.0400000000111
aF614.2800000000111
aF614.5200000000111
aF614.7600000000111
aF614.9200000000111
aF615.0800000000111
aF615.240000000011
aF615.480000000011
aF616.0800000000111
aF616.3200000000111
aF616.9200000000111
aF617.5200000000111
aF618.1200000000111
aF618.7200000000112
aF619.3200000000112
aF619.9200000000112
aF620.5200000000112
aF621.1200000000113
aF621.7200000000113
aF622.3200000000113
aF622.5600000000113
aF622.8000000000113
aF623.0400000000113
aF623.2000000000113
aF623.3600000000113
aF623.9600000000113
aF624.5600000000113
aF624.7200000000113
aF624.7200000000113
aF625.3200000000113
aF625.3200000000113
aF625.9200000000113
aF626.5200000000114
aF626.7600000000114
aF627.0000000000114
aF627.2400000000114
aF627.4000000000113
aF627.5600000000113
aF627.5600000000113
aF627.7200000000113
aF627.9600000000113
aF628.5600000000113
aF628.8000000000113
aF629.0400000000113
aF629.2800000000113
aF629.5200000000114
aF629.7600000000114
aF630.0000000000114
aF630.6000000000114
aF630.8400000000114
aF631.0800000000114
aF631.3200000000114
aF631.5600000000114
aF631.7200000000114
aF631.7200000000114
aF631.8800000000114
aF632.1200000000114
aF632.3600000000114
aF632.6000000000114
aF632.7600000000114
aF632.9200000000113
aF633.5200000000114
aF634.1200000000114
aF634.7200000000114
aF634.8800000000114
aF635.0400000000113
aF635.2000000000113
aF635.3600000000113
aF635.5200000000112
aF636.1200000000113
aF636.3600000000113
aF636.5200000000112
aF636.6800000000112
aF636.8400000000112
aF637.0800000000112
aF637.3200000000112
aF637.5600000000112
aF638.1600000000112
aF638.4000000000112
aF638.6400000000112
aF639.2400000000113
aF639.8400000000113
aF640.4400000000113
aF641.0400000000113
aF641.6400000000114
aF642.2400000000114
aF642.8400000000114
aF643.4400000000114
aF644.0400000000114
aF644.6400000000115
aF645.2400000000115
aF645.8400000000115
aF646.4400000000115
aF647.0400000000116
aF647.6400000000116
aF647.8800000000116
aF648.1200000000116
aF648.3600000000116
aF648.6000000000116
aF648.8400000000116
aF649.0800000000116
aF649.3200000000116
aF649.5600000000117
aF649.8000000000117
aF649.9600000000116
aF650.2000000000116
aF650.8000000000117
aF651.0400000000117
aF651.2800000000117
aF651.5200000000117
aF651.7600000000117
aF652.0000000000117
aF652.1600000000117
aF652.7600000000117
aF653.3600000000117
aF653.6000000000117
aF654.2000000000118
aF654.8000000000118
aF655.4000000000118
aF656.8000000000118
aF656.9600000000117
aF657.1200000000117
aF657.2800000000117
aF657.4400000000117
aF658.0400000000117
aF658.0400000000117
aF658.6400000000117
aF658.6400000000117
aF659.2400000000117
aF659.2400000000117
aF659.8400000000117
aF660.4400000000118
aF660.6000000000117
aF660.7600000000117
aF660.9200000000117
aF661.5200000000117
aF661.5200000000117
aF662.1200000000117
aF662.1200000000117
aF662.7200000000117
aF663.3200000000118
aF663.9200000000118
aF664.5200000000118
aF664.7600000000118
aF664.9200000000118
aF665.0800000000118
aF665.2400000000117
aF665.4000000000117
aF665.5600000000117
aF666.1600000000117
aF666.7600000000117
aF666.9200000000117
aF667.0800000000116
aF667.2400000000116
aF667.4000000000116
aF667.4000000000116
aF667.5600000000115
aF667.8000000000116
aF668.0400000000116
aF668.2800000000116
aF668.4400000000115
aF668.6000000000115
aF668.7600000000115
aF669.0000000000115
aF669.6000000000115
aF669.8400000000115
aF670.0800000000115
aF670.3200000000115
aF670.4800000000115
aF671.0800000000115
aF671.3200000000115
aF671.9200000000116
aF672.5200000000116
aF673.1200000000116
aF673.7200000000116
aF674.3200000000116
aF674.9200000000117
aF675.5200000000117
aF676.1200000000117
aF676.7200000000117
aF677.3200000000118
aF677.9200000000118
aF678.5200000000118
aF679.1200000000118
aF679.2800000000118
aF679.5200000000118
aF679.7600000000118
aF680.0000000000118
aF680.1600000000118
aF680.4000000000118
aF680.5600000000118
aF680.7200000000117
aF680.7200000000117
aF680.7200000000117
aF680.9600000000117
aF681.1200000000117
aF681.1200000000117
aF681.1200000000117
aF681.1200000000117
aF681.3600000000117
aF681.5200000000117
aF682.1200000000117
aF682.3600000000117
aF682.5200000000117
aF683.1200000000117
aF683.7200000000117
aF684.3200000000118
aF684.9200000000118
aF685.1600000000118
aF685.3200000000118
aF685.9200000000118
aF687.3200000000118
aF687.4800000000117
aF687.7200000000117
aF687.9600000000117
aF688.1200000000117
aF688.2800000000117
aF688.2800000000117
aF688.2800000000117
aF688.2800000000117
aF688.5200000000117
aF688.6800000000117
aF688.6800000000117
aF688.9200000000117
aF689.1600000000117
aF689.4000000000117
aF689.5600000000117
aF689.7200000000116
aF690.3200000000116
aF690.9200000000117
aF690.9200000000117
aF691.5200000000117
aF691.6800000000117
aF691.8400000000116
aF692.4400000000117
aF693.0400000000117
aF693.6400000000117
aF694.2400000000117
aF694.8400000000117
aF695.0800000000118
aF695.3200000000118
aF695.4800000000117
aF696.0800000000118
aF696.0800000000118
aF696.6800000000118
aF696.9200000000118
aF697.5200000000118
aF698.1200000000118
aF698.7200000000119
aF698.9600000000119
aF699.5600000000119
aF699.7200000000119
aF700.3200000000119
aF700.9200000000119
aF701.5200000000119
aF702.1200000000119
aF702.720000000012
aF703.320000000012
aF703.920000000012
aF704.520000000012
aF705.120000000012
aF705.3600000000121
aF705.520000000012
aF706.120000000012
aF706.7200000000121
aF706.880000000012
aF707.4800000000121
aF708.0800000000121
aF708.3200000000121
aF708.4800000000121
aF708.640000000012
aF709.2400000000121
aF709.8400000000121
aF709.8400000000121
aF710.4400000000121
aF711.0400000000121
aF711.6400000000122
aF711.6400000000122
aF712.2400000000122
aF712.4800000000122
aF713.0800000000122
aF713.6800000000122
aF714.2800000000123
aF714.8800000000123
aF715.4800000000123
aF716.0800000000123
aF716.6800000000123
aF717.2800000000124
aF717.8800000000124
aF718.4800000000124
aF719.0800000000124
aF720.4800000000124
aF721.8800000000124
aF722.1200000000124
aF722.7200000000124
aF723.3200000000124
aF723.9200000000125
aF724.5200000000125
aF725.1200000000125
aF725.7200000000125
aF726.3200000000126
aF726.3200000000126
aF726.9200000000126
aF728.3200000000126
aF728.4800000000125
aF728.6400000000125
aF728.8000000000125
aF729.0400000000125
aF729.2800000000125
aF729.5200000000125
aF729.7600000000125
aF730.0000000000125
aF730.2400000000125
aF730.4000000000125
aF730.5600000000125
aF730.7200000000124
aF730.8800000000124
aF731.0400000000124
aF731.0400000000124
aF731.0400000000124
aF731.2800000000124
aF731.5200000000124
aF731.7600000000124
aF732.0000000000124
aF732.2400000000124
aF732.4000000000124
aF732.5600000000123
aF732.5600000000123
aF732.5600000000123
aF732.5600000000123
aF732.8000000000123
aF733.0400000000124
aF733.2800000000124
aF733.4400000000123
aF733.6800000000123
aF733.9200000000124
aF734.1600000000124
aF734.3200000000123
aF734.4800000000123
aF735.0800000000123
aF735.6800000000123
aF735.8400000000123
aF736.0800000000123
aF736.2400000000123
aF736.4800000000123
aF736.7200000000123
aF736.9600000000123
aF737.1200000000123
aF737.2800000000123
aF737.4400000000122
aF737.6000000000122
aF737.7600000000122
aF737.9200000000121
aF738.0800000000121
aF738.6800000000121
aF739.2800000000121
aF739.2800000000121
aF739.4400000000121
aF739.4400000000121
aF739.6000000000121
aF740.2000000000121
aF740.8000000000121
aF740.9600000000121
aF741.120000000012
aF741.3600000000121
aF741.6000000000121
aF741.8400000000121
aF742.0800000000121
aF742.3200000000121
aF742.4800000000121
aF738.6800000000121
aF738.8400000000121
aF739.4400000000121
aF740.0400000000121
aF741.4400000000121
aF742.8400000000121
aF743.000000000012
aF743.000000000012
aF743.000000000012
aF743.160000000012
aF743.320000000012
aF743.920000000012
aF744.520000000012
aF745.120000000012
aF745.7200000000121
aF746.3200000000121
aF746.9200000000121
aF748.3200000000121
aF749.7200000000121
aF751.120000000012
aF751.280000000012
aF751.880000000012
aF752.4800000000121
aF753.0800000000121
aF753.6800000000121
aF754.2800000000121
aF754.8800000000122
aF755.4800000000122
aF755.7200000000122
aF755.9600000000122
aF756.2000000000122
aF756.3600000000122
aF756.9600000000122
aF756.9600000000122
aF757.5600000000122
aF757.8000000000122
aF758.4000000000123
aF758.6400000000123
aF759.2400000000123
aF759.8400000000123
aF760.0800000000123
aF760.6800000000123
aF761.2800000000124
aF761.8800000000124
aF762.4800000000124
aF763.0800000000124
aF763.3200000000124
aF763.4800000000124
aF763.6400000000124
aF763.8000000000123
aF764.4000000000124
aF765.0000000000124
aF765.6000000000124
aF766.2000000000124
aF767.6000000000124
aF769.0000000000124
aF769.2400000000124
aF769.4800000000124
aF769.7200000000124
aF769.9600000000124
aF770.5600000000125
aF771.1600000000125
aF771.7600000000125
aF772.3600000000125
aF772.9600000000125
aF772.9600000000125
aF773.5600000000126
aF774.1600000000126
aF774.7600000000126
aF775.3600000000126
aF776.7600000000126
aF776.9200000000126
aF777.5200000000126
aF777.5200000000126
aF778.1200000000126
aF778.3600000000126
aF778.9600000000127
aF779.5600000000127
aF780.1600000000127
aF780.7600000000127
aF781.3600000000127
aF781.9600000000128
aF782.1200000000127
aF782.7200000000128
aF782.9600000000128
aF783.1200000000127
aF783.7200000000128
aF783.8800000000127
aF784.1200000000127
aF784.2800000000127
aF784.4400000000127
aF785.0400000000127
aF785.6400000000127
aF786.2400000000127
aF786.8400000000128
aF787.4400000000128
aF788.0400000000128
aF788.6400000000128
aF789.2400000000129
aF789.8400000000129
aF790.4400000000129
aF791.0400000000129
aF791.640000000013
aF792.240000000013
aF792.240000000013
aF793.640000000013
aF795.0400000000129
aF796.4400000000129
aF796.6000000000129
aF798.0000000000128
aF798.1600000000128
aF798.4000000000128
aF798.5600000000128
aF798.8000000000128
aF799.4000000000128
aF800.0000000000128
aF800.6000000000129
aF800.6000000000129
aF801.2000000000129
aF801.3600000000129
aF801.5200000000128
aF801.6800000000128
aF802.2800000000128
aF802.2800000000128
aF802.8800000000128
aF803.4800000000129
aF803.4800000000129
aF804.0800000000129
aF804.0800000000129
aF804.6800000000129
aF804.6800000000129
aF805.2800000000129
aF805.4400000000129
aF806.0400000000129
aF806.2000000000129
aF806.3600000000129
aF806.3600000000129
aF806.5200000000128
aF806.6800000000128
aF806.6800000000128
aF807.2800000000128
aF807.4400000000128
aF807.6000000000128
aF807.7600000000127
aF807.7600000000127
aF807.9200000000127
aF808.0800000000127
aF808.2400000000126
aF808.2400000000126
aF808.4000000000126
aF808.5600000000126
aF808.8000000000126
aF809.0400000000126
aF809.2800000000126
aF809.4400000000126
aF809.6000000000125
aF809.6000000000125
aF809.7600000000125
aF810.0000000000125
aF810.2400000000125
aF810.4000000000125
aF810.5600000000125
aF810.8000000000125
aF811.0400000000125
aF811.2800000000125
aF811.5200000000125
aF811.7600000000125
aF812.0000000000125
aF812.2400000000125
aF812.4800000000125
aF812.6400000000125
aF812.6400000000125
aF812.8000000000125
aF812.8000000000125
aF813.0400000000125
aF813.2800000000125
aF813.4400000000124
aF813.6000000000124
aF813.6000000000124
aF813.7600000000124
aF814.0000000000124
aF814.2400000000124
aF814.4000000000124
aF814.5600000000123
aF814.7200000000123
aF814.7200000000123
aF814.9600000000123
aF815.1200000000123
aF815.2800000000123
aF815.2800000000123
aF815.2800000000123
aF815.4400000000122
aF815.6000000000122
aF815.6000000000122
aF815.8400000000122
aF816.0000000000122
aF816.1600000000121
aF816.4000000000121
aF816.5600000000121
aF816.7200000000121
aF816.7200000000121
aF816.880000000012
aF817.120000000012
aF817.280000000012
aF817.520000000012
aF817.760000000012
aF818.000000000012
aF818.160000000012
aF818.400000000012
aF819.000000000012
aF819.6000000000121
aF820.2000000000121
aF820.8000000000121
aF821.4000000000121
aF822.0000000000122
aF822.6000000000122
aF823.2000000000122
aF823.8000000000122
aF824.4000000000123
aF825.0000000000123
aF825.2400000000123
aF825.4000000000123
aF826.0000000000123
aF826.2400000000123
aF826.8400000000123
aF827.4400000000123
aF828.0400000000124
aF828.6400000000124
aF829.2400000000124
aF829.8400000000124
aF830.4400000000124
aF831.0400000000125
aF831.6400000000125
aF832.2400000000125
aF832.8400000000125
aF833.4400000000126
aF834.0400000000126
aF834.2800000000126
aF834.5200000000126
aF834.7600000000126
aF834.9200000000126
aF835.0800000000125
aF835.0800000000125
aF835.0800000000125
aF835.0800000000125
aF835.3200000000126
aF835.5600000000126
aF835.8000000000126
aF835.9600000000125
aF835.9600000000125
aF836.2000000000126
aF836.3600000000125
aF836.6000000000125
aF836.7600000000125
aF837.0000000000125
aF837.2400000000125
aF837.4800000000125
aF837.7200000000125
aF837.8800000000125
aF838.4800000000125
aF839.0800000000125
aF839.6800000000126
aF840.2800000000126
aF840.8800000000126
aF841.4800000000126
aF842.0800000000127
aF842.3200000000127
aF842.5600000000127
aF842.8000000000127
aF843.0400000000127
aF843.2000000000127
aF843.4400000000127
aF844.0400000000127
aF844.6400000000127
aF845.2400000000127
aF845.8400000000128
aF846.4400000000128
aF847.0400000000128
aF847.6400000000128
aF848.2400000000129
aF848.8400000000129
aF849.4400000000129
aF850.0400000000129
aF850.2000000000129
aF850.8000000000129
aF851.4000000000129
aF851.4000000000129
aF852.000000000013
aF852.600000000013
aF853.200000000013
aF853.360000000013
aF853.960000000013
aF854.560000000013
aF854.720000000013
aF854.880000000013
aF855.480000000013
aF855.640000000013
aF856.240000000013
aF856.840000000013
aF857.440000000013
aF858.040000000013
aF858.6400000000131
aF859.2400000000131
aF859.2400000000131
aF859.8400000000131
aF860.0000000000131
aF860.0000000000131
aF860.6000000000131
aF861.2000000000131
aF861.2000000000131
aF861.8000000000131
aF861.8000000000131
aF862.4000000000132
aF862.4000000000132
aF863.0000000000132
aF863.0000000000132
aF863.6000000000132
aF864.2000000000132
aF864.8000000000133
aF865.0400000000133
aF865.2000000000132
aF865.8000000000133
aF866.4000000000133
aF867.8000000000133
aF867.8000000000133
aF869.2000000000132
aF870.6000000000132
aF870.7600000000132
aF870.9200000000131
aF871.0800000000131
aF871.6800000000131
aF872.2800000000132
aF872.5200000000132
aF873.1200000000132
aF873.7200000000132
aF874.3200000000132
aF874.9200000000133
aF875.5200000000133
aF876.1200000000133
aF876.7200000000133
aF876.7200000000133
aF877.3200000000134
aF877.9200000000134
aF877.9200000000134
aF878.5200000000134
aF878.5200000000134
aF879.1200000000134
aF879.7200000000134
aF879.7200000000134
aF880.3200000000135
aF880.3200000000135
aF880.9200000000135
aF880.9200000000135
aF880.9200000000135
aF881.5200000000135
aF881.5200000000135
aF882.1200000000135
aF882.2800000000135
aF882.8800000000135
aF882.8800000000135
aF883.0400000000135
aF883.0400000000135
aF883.0400000000135
aF883.2000000000135
aF883.3600000000134
aF883.9600000000135
aF884.5600000000135
aF885.1600000000135
aF885.1600000000135
aF885.7600000000135
aF885.7600000000135
aF886.3600000000135
aF886.3600000000135
aF886.9600000000136
aF887.2000000000136
aF887.8000000000136
aF888.4000000000136
aF889.0000000000136
aF889.6000000000137
aF889.8400000000137
aF890.4400000000137
aF891.0400000000137
aF891.0400000000137
aF891.6400000000137
aF891.8800000000138
aF892.4800000000138
aF893.0800000000138
aF893.6800000000138
aF893.6800000000138
aF894.2800000000138
aF894.2800000000138
aF894.8800000000139
aF895.4800000000139
aF895.7200000000139
aF895.9600000000139
aF896.5600000000139
aF896.8000000000139
aF896.9600000000139
aF897.1200000000139
aF897.7200000000139
aF897.8800000000139
aF897.8800000000139
aF898.0400000000138
aF898.6400000000139
aF899.2400000000139
aF899.4000000000138
aF899.5600000000138
aF899.7200000000138
aF899.7200000000138
aF899.8800000000138
aF900.0400000000137
aF900.0400000000137
aF900.2000000000137
aF900.3600000000137
aF900.5200000000136
aF900.5200000000136
aF900.6800000000136
aF900.8400000000136
aF901.0000000000135
aF901.0000000000135
aF901.1600000000135
aF901.3200000000135
aF901.4800000000134
aF901.4800000000134
aF901.7200000000134
aF901.8800000000134
aF902.0400000000134
aF902.2000000000133
aF902.4400000000134
aF902.6000000000133
aF902.6000000000133
aF902.8400000000133
aF903.0000000000133
aF903.0000000000133
aF903.2400000000133
aF903.4800000000133
aF903.7200000000133
aF903.9600000000133
aF904.2000000000133
aF904.4400000000134
aF904.6800000000134
aF904.9200000000134
aF905.1600000000134
aF905.4000000000134
aF905.6400000000134
aF905.8800000000134
aF906.1200000000134
aF906.2800000000134
aF906.5200000000134
aF906.7600000000134
aF906.9200000000134
aF907.1600000000134
aF907.7600000000134
aF908.0000000000134
aF908.2400000000134
aF908.4800000000134
aF908.7200000000134
aF908.9600000000135
aF909.2000000000135
aF909.4400000000135
aF909.6800000000135
aF909.9200000000135
aF910.1600000000135
aF910.4000000000135
aF910.6400000000135
aF910.8800000000135
aF911.1200000000135
aF911.3600000000135
aF911.6000000000136
aF911.8400000000136
aF912.0800000000136
aF912.3200000000136
a.