(lp0
I0
aF0.24
aF0.48
aF0.72
aF0.96
aF1.2
aF1.44
aF1.68
aF1.92
aF2.16
aF2.4000000000000004
aF2.5600000000000005
aF2.8000000000000007
aF2.960000000000001
aF3.120000000000001
aF3.720000000000001
aF4.320000000000001
aF4.920000000000002
aF5.520000000000001
aF6.120000000000001
aF6.720000000000001
aF7.32
aF7.92
aF8.52
aF9.92
aF11.32
aF11.48
aF11.48
aF11.64
aF12.24
aF12.84
aF13.44
aF14.04
aF14.639999999999999
aF15.239999999999998
aF15.479999999999999
aF15.719999999999999
aF15.959999999999999
aF16.2
aF16.439999999999998
aF16.679999999999996
aF16.919999999999995
aF17.159999999999993
aF17.39999999999999
aF13.59999999999999
aF13.759999999999991
aF14.35999999999999
aF14.95999999999999
aF15.55999999999999
aF16.15999999999999
aF16.75999999999999
aF17.359999999999992
aF17.959999999999994
aF18.559999999999995
aF18.799999999999994
aF19.399999999999995
aF19.999999999999996
aF20.599999999999998
aF21.2
aF21.8
aF22.400000000000002
aF23.000000000000004
aF23.600000000000005
aF24.200000000000006
aF24.800000000000008
aF25.40000000000001
aF25.640000000000008
aF25.880000000000006
aF26.040000000000006
aF26.280000000000005
aF26.440000000000005
aF26.680000000000003
aF26.92
aF27.16
aF27.4
aF27.639999999999997
aF27.879999999999995
aF28.119999999999994
aF28.359999999999992
aF28.59999999999999
aF28.83999999999999
aF25.03999999999999
aF25.63999999999999
aF26.23999999999999
aF26.39999999999999
aF26.55999999999999
aF26.71999999999999
aF26.879999999999992
aF27.479999999999993
aF28.079999999999995
aF28.319999999999993
aF28.55999999999999
aF28.79999999999999
aF29.03999999999999
aF29.19999999999999
aF29.79999999999999
aF30.39999999999999
aF30.999999999999993
aF31.599999999999994
aF32.199999999999996
aF32.8
aF32.959999999999994
aF33.11999999999999
aF33.27999999999999
aF33.87999999999999
aF34.47999999999999
aF34.71999999999999
aF34.959999999999994
aF35.199999999999996
aF35.44
aF36.04
aF36.64
aF37.24
aF37.84
aF38.080000000000005
aF38.32000000000001
aF38.56000000000001
aF38.80000000000001
aF39.04000000000001
aF39.20000000000001
aF39.80000000000001
aF40.40000000000001
aF41.000000000000014
aF41.600000000000016
aF42.20000000000002
aF43.600000000000016
aF43.84000000000002
aF44.08000000000002
aF44.32000000000002
aF44.560000000000024
aF44.800000000000026
aF45.04000000000003
aF45.28000000000003
aF45.52000000000003
aF45.76000000000003
aF41.960000000000036
aF42.12000000000003
aF42.28000000000003
aF42.88000000000003
aF43.48000000000003
aF43.720000000000034
aF43.88000000000003
aF44.04000000000003
aF44.200000000000024
aF44.800000000000026
aF45.40000000000003
aF46.00000000000003
aF46.60000000000003
aF47.20000000000003
aF47.80000000000003
aF49.20000000000003
aF50.60000000000003
aF50.84000000000003
aF51.00000000000003
aF51.60000000000003
aF52.20000000000003
aF52.80000000000003
aF53.400000000000034
aF54.000000000000036
aF54.16000000000003
aF54.76000000000003
aF55.360000000000035
aF55.60000000000004
aF55.84000000000004
aF56.000000000000036
aF56.60000000000004
aF57.20000000000004
aF57.80000000000004
aF58.40000000000004
aF59.00000000000004
aF59.600000000000044
aF60.200000000000045
aF60.80000000000005
aF62.200000000000045
aF63.600000000000044
aF63.76000000000004
aF63.92000000000004
aF64.08000000000004
aF64.24000000000004
aF64.40000000000003
aF64.56000000000003
aF64.72000000000003
aF64.88000000000002
aF65.04000000000002
aF65.20000000000002
aF65.36000000000001
aF65.52000000000001
aF65.76
aF65.92
aF66.08
aF66.08
aF66.24
aF66.47999999999999
aF66.63999999999999
aF66.79999999999998
aF66.95999999999998
aF67.19999999999997
aF67.35999999999997
aF67.51999999999997
aF67.67999999999996
aF67.91999999999996
aF68.07999999999996
aF68.23999999999995
aF68.39999999999995
aF68.63999999999994
aF68.79999999999994
aF68.95999999999994
aF69.11999999999993
aF69.35999999999993
aF69.51999999999992
aF69.67999999999992
aF69.83999999999992
aF70.07999999999991
aF70.23999999999991
aF70.3999999999999
aF70.5599999999999
aF70.7199999999999
aF70.9599999999999
aF71.11999999999989
aF71.27999999999989
aF71.43999999999988
aF71.67999999999988
aF71.83999999999988
aF71.99999999999987
aF72.15999999999987
aF72.39999999999986
aF72.55999999999986
aF72.55999999999986
aF72.79999999999986
aF72.95999999999985
aF73.11999999999985
aF73.35999999999984
aF73.59999999999984
aF73.83999999999983
aF74.07999999999983
aF74.31999999999982
aF74.47999999999982
aF74.71999999999981
aF74.87999999999981
aF74.87999999999981
aF75.1199999999998
aF75.2799999999998
aF75.4399999999998
aF75.5999999999998
aF75.83999999999979
aF75.99999999999979
aF76.15999999999978
aF76.31999999999978
aF76.55999999999977
aF76.71999999999977
aF76.87999999999977
aF77.03999999999976
aF77.27999999999976
aF77.51999999999975
aF77.75999999999975
aF77.91999999999975
aF78.07999999999974
aF78.23999999999974
aF78.23999999999974
aF78.39999999999974
aF78.55999999999973
aF78.79999999999973
aF78.95999999999972
aF79.11999999999972
aF79.27999999999972
aF79.43999999999971
aF79.67999999999971
aF79.9199999999997
aF80.1599999999997
aF80.3999999999997
aF80.63999999999969
aF80.87999999999968
aF81.11999999999968
aF81.35999999999967
aF81.59999999999967
aF81.83999999999966
aF82.07999999999966
aF82.31999999999965
aF82.55999999999965
aF82.79999999999964
aF83.03999999999964
aF83.27999999999963
aF83.51999999999963
aF83.75999999999962
aF83.99999999999962
aF84.23999999999961
aF80.43999999999961
aF80.59999999999961
aF80.75999999999961
aF80.9199999999996
aF81.5199999999996
aF81.7599999999996
aF82.35999999999959
aF82.95999999999958
aF83.55999999999958
aF84.15999999999957
aF84.75999999999956
aF85.35999999999956
aF85.95999999999955
aF86.55999999999955
aF87.15999999999954
aF87.75999999999954
aF89.15999999999954
aF90.55999999999955
aF91.95999999999955
aF92.11999999999955
aF93.51999999999956
aF93.75999999999955
aF94.35999999999954
aF94.95999999999954
aF95.55999999999953
aF95.79999999999953
aF96.03999999999952
aF96.27999999999952
aF96.51999999999951
aF96.67999999999951
aF96.8399999999995
aF97.4399999999995
aF98.0399999999995
aF98.63999999999949
aF99.23999999999948
aF99.83999999999948
aF100.43999999999947
aF101.03999999999947
aF101.63999999999946
aF102.23999999999945
aF102.83999999999945
aF103.43999999999944
aF104.03999999999944
aF104.63999999999943
aF105.23999999999943
aF105.83999999999942
aF106.43999999999942
aF107.03999999999941
aF107.6399999999994
aF108.2399999999994
aF108.4799999999994
aF108.71999999999939
aF108.95999999999938
aF109.19999999999938
aF109.35999999999937
aF109.95999999999937
aF110.55999999999936
aF111.15999999999936
aF111.75999999999935
aF112.35999999999935
aF113.75999999999935
aF115.15999999999936
aF115.31999999999935
aF115.47999999999935
aF115.63999999999935
aF115.79999999999934
aF115.95999999999934
aF116.11999999999934
aF116.27999999999933
aF116.87999999999933
aF117.47999999999932
aF118.07999999999932
aF118.67999999999931
aF119.2799999999993
aF119.8799999999993
aF120.4799999999993
aF121.07999999999929
aF121.67999999999928
aF122.27999999999928
aF122.87999999999927
aF123.47999999999927
aF123.71999999999926
aF123.87999999999926
aF124.11999999999925
aF124.35999999999925
aF124.59999999999924
aF124.83999999999924
aF125.07999999999923
aF125.31999999999923
aF125.55999999999922
aF125.79999999999922
aF126.03999999999921
aF126.2799999999992
aF126.5199999999992
aF126.7599999999992
aF126.99999999999919
aF127.23999999999918
aF127.39999999999918
aF127.39999999999918
aF127.55999999999918
aF127.55999999999918
aF127.55999999999918
aF127.79999999999917
aF127.95999999999917
aF127.95999999999917
aF128.19999999999916
aF128.35999999999916
aF128.35999999999916
aF128.51999999999916
aF128.51999999999916
aF128.75999999999917
aF128.99999999999918
aF129.23999999999918
aF129.4799999999992
aF129.6399999999992
aF125.8399999999992
aF126.07999999999919
aF126.31999999999918
aF126.55999999999918
aF126.79999999999917
aF127.03999999999917
aF127.27999999999916
aF127.51999999999916
aF127.75999999999915
aF127.99999999999915
aF128.23999999999916
aF128.47999999999917
aF128.71999999999917
aF128.95999999999918
aF129.11999999999918
aF129.3599999999992
aF129.5199999999992
aF129.5199999999992
aF129.67999999999918
aF129.9199999999992
aF130.0799999999992
aF130.3199999999992
aF130.5599999999992
aF130.79999999999922
aF131.03999999999922
aF131.27999999999923
aF131.51999999999924
aF131.67999999999924
aF131.91999999999925
aF132.15999999999926
aF132.31999999999925
aF132.31999999999925
aF132.47999999999925
aF132.63999999999925
aF132.63999999999925
aF132.79999999999924
aF133.03999999999925
aF133.27999999999926
aF133.43999999999926
aF133.67999999999927
aF133.91999999999928
aF134.1599999999993
aF134.3999999999993
aF134.6399999999993
aF134.8799999999993
aF135.11999999999932
aF135.27999999999932
aF135.51999999999933
aF135.67999999999932
aF135.67999999999932
aF135.67999999999932
aF135.83999999999932
aF135.99999999999932
aF136.5999999999993
aF137.1999999999993
aF137.43999999999932
aF137.67999999999932
aF137.91999999999933
aF138.07999999999933
aF138.07999999999933
aF138.23999999999933
aF138.83999999999932
aF139.07999999999933
aF139.67999999999932
aF140.27999999999932
aF140.8799999999993
aF141.4799999999993
aF142.0799999999993
aF142.6799999999993
aF143.2799999999993
aF144.6799999999993
aF144.9199999999993
aF145.5199999999993
aF146.1199999999993
aF146.7199999999993
aF147.31999999999928
aF147.91999999999928
aF148.51999999999927
aF149.11999999999927
aF149.71999999999926
aF150.31999999999925
aF150.91999999999925
aF151.51999999999924
aF152.11999999999924
aF152.71999999999923
aF153.31999999999923
aF153.91999999999922
aF154.51999999999921
aF155.91999999999922
aF157.31999999999923
aF157.55999999999923
aF157.79999999999924
aF158.03999999999925
aF158.27999999999926
aF158.43999999999926
aF158.59999999999926
aF158.83999999999926
aF158.99999999999926
aF159.59999999999926
aF159.83999999999926
aF160.43999999999926
aF161.03999999999925
aF161.63999999999925
aF162.23999999999924
aF162.83999999999924
aF163.43999999999923
aF164.03999999999922
aF164.63999999999922
aF165.2399999999992
aF165.8399999999992
aF166.4399999999992
aF167.0399999999992
aF167.6399999999992
aF168.23999999999918
aF168.83999999999918
aF169.43999999999917
aF170.03999999999917
aF170.63999999999916
aF170.87999999999917
aF171.11999999999918
aF171.3599999999992
aF171.95999999999918
aF172.55999999999918
aF173.15999999999917
aF173.39999999999918
aF173.6399999999992
aF173.8799999999992
aF174.1199999999992
aF174.2799999999992
aF174.8799999999992
aF175.1199999999992
aF175.7199999999992
aF176.3199999999992
aF176.9199999999992
aF177.5199999999992
aF178.11999999999918
aF178.71999999999917
aF179.31999999999917
aF179.91999999999916
aF180.51999999999916
aF180.75999999999917
aF180.99999999999918
aF181.23999999999918
aF181.4799999999992
aF181.7199999999992
aF181.9599999999992
aF182.19999999999922
aF182.43999999999923
aF182.67999999999924
aF182.91999999999925
aF183.15999999999926
aF183.39999999999927
aF183.63999999999928
aF183.87999999999928
aF184.03999999999928
aF184.19999999999928
aF184.35999999999927
aF184.59999999999928
aF185.19999999999928
aF185.79999999999927
aF186.03999999999928
aF186.2799999999993
aF186.5199999999993
aF186.7599999999993
aF186.99999999999932
aF187.23999999999933
aF187.47999999999934
aF187.71999999999935
aF187.95999999999935
aF188.19999999999936
aF188.43999999999937
aF188.67999999999938
aF188.9199999999994
aF189.1599999999994
aF189.3999999999994
aF189.63999999999942
aF189.87999999999943
aF190.11999999999944
aF190.35999999999945
aF190.59999999999945
aF190.83999999999946
aF191.43999999999946
aF191.67999999999947
aF191.91999999999948
aF192.15999999999948
aF192.3999999999995
aF192.6399999999995
aF192.8799999999995
aF193.11999999999952
aF193.35999999999953
aF193.59999999999954
aF193.83999999999955
aF194.07999999999956
aF194.23999999999955
aF194.39999999999955
aF194.55999999999955
aF195.15999999999954
aF195.75999999999954
aF195.99999999999955
aF196.23999999999955
aF196.47999999999956
aF197.07999999999956
aF197.23999999999955
aF197.83999999999955
aF197.99999999999955
aF198.15999999999954
aF198.75999999999954
aF199.35999999999953
aF199.95999999999952
aF200.55999999999952
aF201.1599999999995
aF201.7599999999995
aF202.3599999999995
aF202.9599999999995
aF203.5599999999995
aF204.15999999999948
aF204.3999999999995
aF204.6399999999995
aF205.2399999999995
aF205.8399999999995
aF206.4399999999995
aF207.03999999999948
aF208.4399999999995
aF209.8399999999995
aF210.0799999999995
aF210.2399999999995
aF210.3999999999995
aF210.5599999999995
aF210.7199999999995
aF210.87999999999948
aF211.03999999999948
aF211.19999999999948
aF211.35999999999947
aF211.51999999999947
aF212.11999999999946
aF212.71999999999946
aF213.31999999999945
aF213.91999999999945
aF214.07999999999944
aF214.23999999999944
aF214.39999999999944
aF214.55999999999943
aF214.71999999999943
aF214.87999999999943
aF215.03999999999942
aF215.19999999999942
aF215.35999999999942
aF215.9599999999994
aF215.9599999999994
aF216.5599999999994
aF217.1599999999994
aF217.3999999999994
aF217.5599999999994
aF217.5599999999994
aF217.5599999999994
aF217.5599999999994
aF218.1599999999994
aF218.1599999999994
aF218.7599999999994
aF219.3599999999994
aF219.51999999999938
aF219.51999999999938
aF219.51999999999938
aF219.51999999999938
aF220.11999999999938
aF220.27999999999938
aF220.27999999999938
aF220.87999999999937
aF217.07999999999936
aF217.31999999999937
aF217.47999999999936
aF218.07999999999936
aF218.67999999999935
aF219.27999999999935
aF219.87999999999934
aF220.47999999999934
aF221.07999999999933
aF221.67999999999932
aF223.07999999999933
aF223.31999999999934
aF223.91999999999933
aF224.51999999999933
aF225.11999999999932
aF225.71999999999932
aF225.95999999999933
aF226.19999999999933
aF226.43999999999934
aF226.59999999999934
aF226.83999999999935
aF226.99999999999935
aF227.15999999999934
aF227.31999999999934
aF227.91999999999933
aF228.51999999999933
aF229.11999999999932
aF229.71999999999932
aF230.3199999999993
aF230.9199999999993
aF231.5199999999993
aF232.1199999999993
aF232.7199999999993
aF233.31999999999928
aF234.7199999999993
aF236.1199999999993
aF236.3599999999993
aF236.9599999999993
aF237.5599999999993
aF238.1599999999993
aF238.75999999999928
aF240.1599999999993
aF241.5599999999993
aF241.7199999999993
aF241.7199999999993
aF241.7199999999993
aF241.7199999999993
aF241.7199999999993
aF241.87999999999928
aF242.47999999999928
aF242.7199999999993
aF243.31999999999928
aF243.91999999999928
aF244.51999999999927
aF245.11999999999927
aF245.71999999999926
aF246.31999999999925
aF246.91999999999925
aF247.51999999999924
aF248.11999999999924
aF248.71999999999923
aF249.31999999999923
aF249.91999999999922
aF250.51999999999921
aF250.75999999999922
aF250.91999999999922
aF251.07999999999922
aF251.6799999999992
aF251.8399999999992
aF251.9999999999992
aF252.1599999999992
aF252.3199999999992
aF252.3199999999992
aF252.3199999999992
aF252.3199999999992
aF252.3199999999992
aF252.4799999999992
aF252.6399999999992
aF252.8799999999992
aF253.0399999999992
aF253.1999999999992
aF253.3599999999992
aF253.5199999999992
aF253.67999999999918
aF253.83999999999918
aF253.83999999999918
aF253.99999999999918
aF254.15999999999917
aF254.31999999999917
aF254.31999999999917
aF254.31999999999917
aF254.47999999999917
aF254.47999999999917
aF254.47999999999917
aF254.47999999999917
aF254.47999999999917
aF254.71999999999917
aF254.95999999999918
aF251.15999999999917
aF251.75999999999917
aF252.35999999999916
aF252.51999999999916
aF252.67999999999915
aF252.83999999999915
aF253.43999999999915
aF254.03999999999914
aF254.63999999999913
aF255.23999999999913
aF255.83999999999912
aF256.43999999999915
aF257.03999999999917
aF257.6399999999992
aF258.2399999999992
aF259.6399999999992
aF259.8799999999992
aF260.4799999999992
aF261.8799999999992
aF262.1199999999992
aF262.3599999999992
aF262.95999999999924
aF263.55999999999926
aF264.1599999999993
aF264.7599999999993
aF265.35999999999933
aF265.95999999999935
aF266.5599999999994
aF267.1599999999994
aF267.7599999999994
aF268.35999999999945
aF268.59999999999945
aF268.7599999999995
aF268.9199999999995
aF269.07999999999953
aF269.07999999999953
aF269.07999999999953
aF269.07999999999953
aF269.23999999999955
aF269.23999999999955
aF269.47999999999956
aF265.67999999999955
aF265.8399999999996
aF265.9999999999996
aF266.5999999999996
aF267.19999999999965
aF267.79999999999967
aF268.3999999999997
aF268.9999999999997
aF269.59999999999974
aF269.83999999999975
aF270.43999999999977
aF271.0399999999998
aF271.6399999999998
aF272.23999999999984
aF273.6399999999998
aF275.0399999999998
aF276.43999999999977
aF276.5999999999998
aF276.7599999999998
aF276.91999999999985
aF277.51999999999987
aF277.6799999999999
aF278.2799999999999
aF278.87999999999994
aF279.47999999999996
aF280.08
aF280.68
aF281.28000000000003
aF281.88000000000005
aF282.4800000000001
aF283.0800000000001
aF283.6800000000001
aF284.28000000000014
aF284.88000000000017
aF285.4800000000002
aF286.0800000000002
aF286.68000000000023
aF287.28000000000026
aF287.4400000000003
aF288.0400000000003
aF288.6400000000003
aF289.24000000000035
aF289.4000000000004
aF289.6400000000004
aF290.2400000000004
aF290.84000000000043
aF291.44000000000045
aF292.0400000000005
aF292.6400000000005
aF293.2400000000005
aF293.84000000000054
aF295.2400000000005
aF295.40000000000055
aF295.56000000000057
aF295.7200000000006
aF295.8800000000006
aF296.04000000000065
aF296.64000000000067
aF297.2400000000007
aF297.8400000000007
aF298.0800000000007
aF298.32000000000073
aF298.56000000000074
aF298.80000000000075
aF298.9600000000008
aF299.5600000000008
aF300.1600000000008
aF300.76000000000084
aF301.36000000000087
aF302.76000000000084
aF304.1600000000008
aF304.40000000000083
aF304.56000000000085
aF304.7200000000009
aF304.8800000000009
aF305.04000000000093
aF305.20000000000095
aF305.360000000001
aF305.520000000001
aF306.120000000001
aF306.28000000000105
aF306.4400000000011
aF306.6000000000011
aF306.7600000000011
aF306.92000000000115
aF307.0800000000012
aF307.2400000000012
aF307.4000000000012
aF307.56000000000125
aF307.7200000000013
aF308.3200000000013
aF308.9200000000013
aF309.08000000000135
aF309.2400000000014
aF309.4000000000014
aF309.5600000000014
aF309.72000000000145
aF309.8800000000015
aF310.0400000000015
aF310.2000000000015
aF310.36000000000155
aF310.5200000000016
aF311.1200000000016
aF311.7200000000016
aF311.88000000000164
aF312.04000000000167
aF312.2000000000017
aF312.3600000000017
aF312.52000000000174
aF313.12000000000177
aF313.2800000000018
aF313.4400000000018
aF313.60000000000184
aF314.20000000000186
aF314.8000000000019
aF314.9600000000019
aF315.12000000000194
aF315.28000000000196
aF315.440000000002
aF315.600000000002
aF315.76000000000204
aF315.92000000000206
aF316.0800000000021
aF316.2400000000021
aF316.84000000000214
aF317.44000000000216
aF317.6000000000022
aF317.7600000000022
aF317.92000000000223
aF318.08000000000226
aF318.2400000000023
aF318.4000000000023
aF318.56000000000233
aF318.72000000000236
aF318.8800000000024
aF319.4800000000024
aF320.0800000000024
aF320.24000000000245
aF320.4000000000025
aF320.5600000000025
aF320.7200000000025
aF320.88000000000255
aF321.0400000000026
aF321.2000000000026
aF321.36000000000263
aF321.52000000000265
aF322.1200000000027
aF322.2800000000027
aF322.8800000000027
aF323.04000000000275
aF323.2000000000028
aF323.3600000000028
aF323.5200000000028
aF323.68000000000285
aF323.8400000000029
aF324.0000000000029
aF324.1600000000029
aF324.32000000000295
aF324.920000000003
aF325.160000000003
aF325.760000000003
aF326.360000000003
aF326.96000000000305
aF327.5600000000031
aF328.1600000000031
aF328.7600000000031
aF329.36000000000314
aF329.96000000000316
aF330.5600000000032
aF330.8000000000032
aF331.0400000000032
aF331.2800000000032
aF331.5200000000032
aF331.68000000000325
aF332.28000000000327
aF332.8800000000033
aF334.28000000000327
aF335.68000000000325
aF335.8400000000033
aF336.4400000000033
aF336.6800000000033
aF337.2800000000033
aF337.44000000000335
aF337.6000000000034
aF337.7600000000034
aF337.7600000000034
aF337.9200000000034
aF338.52000000000345
aF338.6800000000035
aF339.2800000000035
aF339.8800000000035
aF340.48000000000354
aF341.08000000000357
aF341.6800000000036
aF342.2800000000036
aF342.44000000000364
aF342.60000000000366
aF343.2000000000037
aF343.8000000000037
aF344.40000000000373
aF345.00000000000375
aF345.6000000000038
aF346.2000000000038
aF346.8000000000038
aF347.40000000000384
aF348.00000000000387
aF348.6000000000039
aF348.7600000000039
aF349.0000000000039
aF349.60000000000394
aF351.0000000000039
aF351.16000000000395
aF351.320000000004
aF351.480000000004
aF352.080000000004
aF352.68000000000404
aF353.28000000000407
aF353.8800000000041
aF355.28000000000407
aF355.4400000000041
aF355.6000000000041
aF356.20000000000414
aF356.80000000000416
aF356.9600000000042
aF357.1200000000042
aF357.28000000000424
aF357.44000000000426
aF357.6000000000043
aF357.7600000000043
aF357.92000000000434
aF358.08000000000436
aF358.2400000000044
aF358.8400000000044
aF359.44000000000443
aF359.60000000000446
aF359.7600000000045
aF359.9200000000045
aF360.08000000000453
aF360.24000000000456
aF360.4000000000046
aF360.5600000000046
aF360.72000000000463
aF360.88000000000466
aF361.4800000000047
aF361.6400000000047
aF362.2400000000047
aF362.84000000000475
aF363.0000000000048
aF363.1600000000048
aF363.3200000000048
aF363.48000000000485
aF363.6400000000049
aF363.8000000000049
aF364.4000000000049
aF364.56000000000495
aF365.16000000000497
aF365.320000000005
aF365.480000000005
aF365.64000000000505
aF365.80000000000507
aF365.9600000000051
aF366.1200000000051
aF366.28000000000515
aF366.44000000000517
aF366.6000000000052
aF366.7600000000052
aF367.36000000000524
aF367.96000000000527
aF368.1200000000053
aF368.2800000000053
aF368.44000000000534
aF368.60000000000537
aF368.7600000000054
aF368.9200000000054
aF369.08000000000544
aF369.24000000000547
aF369.4000000000055
aF370.0000000000055
aF370.60000000000554
aF370.76000000000556
aF371.3600000000056
aF371.5200000000056
aF371.68000000000563
aF372.28000000000566
aF372.4400000000057
aF372.6000000000057
aF372.76000000000573
aF372.92000000000576
aF373.5200000000058
aF373.6800000000058
aF373.84000000000583
aF374.00000000000585
aF374.1600000000059
aF374.3200000000059
aF374.48000000000593
aF374.64000000000595
aF375.240000000006
aF375.400000000006
aF375.560000000006
aF376.16000000000605
aF376.3200000000061
aF376.4800000000061
aF376.6400000000061
aF376.80000000000615
aF376.9600000000062
aF377.1200000000062
aF377.2800000000062
aF377.44000000000625
aF377.6000000000063
aF377.7600000000063
aF377.9200000000063
aF378.52000000000635
aF378.6800000000064
aF378.8400000000064
aF379.0000000000064
aF379.16000000000645
aF379.3200000000065
aF379.4800000000065
aF379.6400000000065
aF379.80000000000655
aF379.9600000000066
aF380.1200000000066
aF380.7200000000066
aF381.32000000000664
aF381.48000000000667
aF381.6400000000067
aF381.8000000000067
aF381.96000000000674
aF382.12000000000677
aF382.2800000000068
aF382.4400000000068
aF382.60000000000684
aF382.76000000000687
aF383.3600000000069
aF383.9600000000069
aF384.12000000000694
aF384.28000000000696
aF384.440000000007
aF384.600000000007
aF384.76000000000704
aF384.92000000000706
aF385.0800000000071
aF385.2400000000071
aF385.40000000000714
aF386.00000000000716
aF386.6000000000072
aF386.7600000000072
aF386.92000000000724
aF387.08000000000726
aF387.2400000000073
aF387.4000000000073
aF387.56000000000734
aF387.72000000000736
aF387.8800000000074
aF388.0400000000074
aF388.64000000000743
aF389.24000000000746
aF389.4000000000075
aF389.5600000000075
aF389.72000000000753
aF389.88000000000756
aF390.0400000000076
aF390.2000000000076
aF390.36000000000763
aF390.52000000000766
aF390.6800000000077
aF391.2800000000077
aF391.8800000000077
aF392.04000000000775
aF392.2000000000078
aF392.3600000000078
aF392.5200000000078
aF392.68000000000785
aF392.8400000000079
aF393.0000000000079
aF393.1600000000079
aF393.32000000000795
aF393.920000000008
aF394.080000000008
aF394.320000000008
aF394.560000000008
aF394.800000000008
aF394.96000000000805
aF395.5600000000081
aF395.7200000000081
aF395.8800000000081
aF396.04000000000815
aF396.6400000000082
aF397.2400000000082
aF397.8400000000082
aF398.44000000000824
aF399.04000000000826
aF399.6400000000083
aF401.04000000000826
aF401.2800000000083
aF401.8800000000083
aF402.4800000000083
aF403.08000000000834
aF403.68000000000836
aF404.2800000000084
aF404.8800000000084
aF405.1200000000084
aF405.28000000000844
aF405.88000000000847
aF406.4800000000085
aF406.7200000000085
aF406.8800000000085
aF407.48000000000854
aF408.08000000000857
aF408.6800000000086
aF409.2800000000086
aF409.88000000000864
aF410.48000000000866
aF411.88000000000864
aF412.04000000000866
aF412.28000000000867
aF412.8800000000087
aF413.4800000000087
aF414.08000000000874
aF414.68000000000876
aF415.2800000000088
aF415.5200000000088
aF416.1200000000088
aF417.5200000000088
aF418.92000000000877
aF419.0800000000088
aF419.2400000000088
aF419.40000000000884
aF420.00000000000887
aF420.6000000000089
aF421.2000000000089
aF421.80000000000894
aF421.96000000000896
aF422.120000000009
aF422.280000000009
aF422.44000000000904
aF422.60000000000906
aF422.7600000000091
aF422.9200000000091
aF423.08000000000914
aF423.24000000000916
aF423.4000000000092
aF424.0000000000092
aF424.60000000000923
aF425.20000000000925
aF425.8000000000093
aF426.4000000000093
aF427.0000000000093
aF427.60000000000935
aF428.20000000000937
aF428.8000000000094
aF429.4000000000094
aF430.00000000000944
aF430.60000000000946
aF431.2000000000095
aF431.8000000000095
aF432.4000000000095
aF433.00000000000955
aF433.1600000000096
aF433.4000000000096
aF433.6400000000096
aF433.8800000000096
aF434.1200000000096
aF434.3600000000096
aF434.60000000000963
aF434.84000000000964
aF435.08000000000965
aF435.32000000000966
aF435.56000000000967
aF435.8000000000097
aF436.0400000000097
aF436.2800000000097
aF436.5200000000097
aF436.7600000000097
aF436.92000000000974
aF436.92000000000974
aF436.92000000000974
aF437.08000000000976
aF437.08000000000976
aF437.08000000000976
aF437.08000000000976
aF437.2400000000098
aF437.2400000000098
aF437.2400000000098
aF437.4000000000098
aF437.4000000000098
aF437.6400000000098
aF437.80000000000985
aF437.80000000000985
aF437.80000000000985
aF437.80000000000985
aF438.04000000000985
aF438.2000000000099
aF438.3600000000099
aF438.3600000000099
aF438.52000000000993
aF438.76000000000994
aF438.92000000000996
aF439.08000000001
aF439.68000000001
aF439.68000000001
aF439.68000000001
aF439.92000000001
aF440.08000000001005
aF440.08000000001005
aF440.24000000001007
aF440.4800000000101
aF440.7200000000101
aF440.8800000000101
aF441.04000000001014
aF441.04000000001014
aF441.04000000001014
aF441.04000000001014
aF441.04000000001014
aF441.04000000001014
aF441.20000000001016
aF441.3600000000102
aF441.3600000000102
aF441.3600000000102
aF441.3600000000102
aF441.3600000000102
aF441.5200000000102
aF442.12000000001024
aF442.72000000001026
aF443.3200000000103
aF443.5600000000103
aF443.8000000000103
aF444.0400000000103
aF444.2800000000103
aF444.5200000000103
aF444.76000000001034
aF445.00000000001035
aF445.16000000001037
aF441.36000000001036
aF441.60000000001037
aF441.8400000000104
aF442.0800000000104
aF442.3200000000104
aF442.5600000000104
aF442.8000000000104
aF443.0400000000104
aF443.28000000001043
aF443.52000000001044
aF443.76000000001045
aF444.00000000001046
aF444.24000000001047
aF444.4800000000105
aF444.6400000000105
aF444.8800000000105
aF445.04000000001054
aF445.20000000001056
aF445.44000000001057
aF445.6800000000106
aF445.9200000000106
aF446.1600000000106
aF446.4000000000106
aF446.6400000000106
aF447.24000000001064
aF447.48000000001065
aF447.72000000001066
aF447.96000000001067
aF448.2000000000107
aF448.4400000000107
aF448.6800000000107
aF448.9200000000107
aF449.1600000000107
aF449.4000000000107
aF449.64000000001073
aF449.88000000001074
aF450.12000000001075
aF450.2800000000108
aF450.4400000000108
aF450.6000000000108
aF450.84000000001083
aF451.08000000001084
aF451.32000000001085
aF451.56000000001086
aF451.80000000001087
aF452.0400000000109
aF452.2800000000109
aF452.5200000000109
aF452.7600000000109
aF453.0000000000109
aF453.2400000000109
aF453.48000000001093
aF453.72000000001094
aF453.96000000001095
aF454.20000000001096
aF454.800000000011
aF455.040000000011
aF455.280000000011
aF455.520000000011
aF455.760000000011
aF456.000000000011
aF456.24000000001104
aF456.48000000001105
aF456.72000000001105
aF456.96000000001106
aF457.2000000000111
aF457.4400000000111
aF457.6800000000111
aF457.9200000000111
aF458.1600000000111
aF458.4000000000111
aF458.6400000000111
aF458.88000000001114
aF459.12000000001115
aF459.36000000001115
aF459.60000000001116
aF459.8400000000112
aF460.0000000000112
aF460.1600000000112
aF460.76000000001125
aF461.36000000001127
aF461.9600000000113
aF462.5600000000113
aF463.16000000001134
aF463.76000000001136
aF464.3600000000114
aF464.9600000000114
aF465.5600000000114
aF466.16000000001145
aF466.7600000000115
aF467.3600000000115
aF467.9600000000115
aF469.3600000000115
aF469.6000000000115
aF470.2000000000115
aF470.80000000001155
aF471.4000000000116
aF472.0000000000116
aF472.6000000000116
aF472.8400000000116
aF473.00000000001165
aF473.00000000001165
aF473.00000000001165
aF473.00000000001165
aF473.00000000001165
aF473.00000000001165
aF473.00000000001165
aF473.00000000001165
aF473.00000000001165
aF473.24000000001166
aF473.4000000000117
aF474.0000000000117
aF474.60000000001173
aF476.0000000000117
aF476.2400000000117
aF476.4800000000117
aF477.08000000001175
aF477.6800000000118
aF478.2800000000118
aF478.8800000000118
aF479.1200000000118
aF479.36000000001184
aF479.60000000001185
aF479.84000000001186
aF480.08000000001186
aF480.3200000000119
aF480.5600000000119
aF480.8000000000119
aF480.9600000000119
aF481.56000000001194
aF481.80000000001195
aF482.40000000001197
aF483.000000000012
aF483.600000000012
aF484.20000000001204
aF484.80000000001206
aF485.4000000000121
aF486.0000000000121
aF486.60000000001213
aF487.20000000001215
aF487.8000000000122
aF488.4000000000122
aF488.6400000000122
aF488.8800000000122
aF489.1200000000122
aF489.36000000001223
aF489.96000000001226
aF490.20000000001227
aF490.4400000000123
aF490.6800000000123
aF490.9200000000123
aF491.1600000000123
aF491.4000000000123
aF491.6400000000123
aF491.80000000001235
aF491.96000000001237
aF492.1200000000124
aF492.3600000000124
aF492.6000000000124
aF492.8400000000124
aF493.08000000001243
aF493.32000000001244
aF493.56000000001245
aF493.80000000001246
aF494.04000000001247
aF494.2800000000125
aF494.5200000000125
aF494.7600000000125
aF495.0000000000125
aF495.2400000000125
aF495.4800000000125
aF495.72000000001253
aF495.96000000001254
aF496.20000000001255
aF496.44000000001256
aF496.68000000001257
aF496.9200000000126
aF497.1600000000126
aF497.4000000000126
aF497.6400000000126
aF497.8800000000126
aF498.48000000001264
aF498.72000000001265
aF498.96000000001266
aF499.20000000001266
aF499.4400000000127
aF499.6800000000127
aF499.9200000000127
aF500.1600000000127
aF500.3200000000127
aF500.48000000001275
aF500.72000000001276
aF500.96000000001277
aF501.2000000000128
aF501.4400000000128
aF501.6800000000128
aF501.9200000000128
aF502.1600000000128
aF502.4000000000128
aF502.64000000001283
aF502.88000000001284
a.