(lp0
I0
aF0.24
aF0.48
aF0.72
aF0.96
aF1.2
aF1.44
aF1.68
aF1.92
aF2.16
aF2.4000000000000004
aF2.6400000000000006
aF2.880000000000001
aF3.120000000000001
aF3.280000000000001
aF3.4400000000000013
aF3.6000000000000014
aF4.200000000000001
aF4.800000000000001
aF5.4
aF6.0
aF6.6
aF7.199999999999999
aF7.799999999999999
aF8.399999999999999
aF8.999999999999998
aF9.599999999999998
aF10.199999999999998
aF10.799999999999997
aF12.199999999999998
aF13.599999999999998
aF13.839999999999998
aF14.079999999999998
aF14.319999999999999
aF14.559999999999999
aF14.799999999999999
aF15.04
aF15.2
aF15.36
aF15.959999999999999
aF16.56
aF17.16
aF17.4
aF18.0
aF18.6
aF19.200000000000003
aF19.800000000000004
aF20.400000000000006
aF21.800000000000004
aF23.200000000000003
aF23.360000000000003
aF23.960000000000004
aF24.560000000000006
aF25.160000000000007
aF25.76000000000001
aF26.36000000000001
aF26.96000000000001
aF27.560000000000013
aF28.160000000000014
aF29.560000000000013
aF30.96000000000001
aF31.20000000000001
aF31.44000000000001
aF32.040000000000006
aF32.64000000000001
aF33.24000000000001
aF33.84000000000001
aF34.44000000000001
aF35.04000000000001
aF35.640000000000015
aF36.240000000000016
aF36.84000000000002
aF37.08000000000002
aF37.32000000000002
aF37.560000000000024
aF37.800000000000026
aF38.04000000000003
aF38.28000000000003
aF38.52000000000003
aF38.76000000000003
aF39.000000000000036
aF39.16000000000003
aF39.76000000000003
aF40.360000000000035
aF40.60000000000004
aF40.84000000000004
aF41.44000000000004
aF42.04000000000004
aF42.64000000000004
aF43.240000000000045
aF43.840000000000046
aF44.44000000000005
aF45.04000000000005
aF45.64000000000005
aF46.24000000000005
aF47.64000000000005
aF49.04000000000005
aF49.28000000000005
aF49.52000000000005
aF49.760000000000055
aF50.00000000000006
aF50.24000000000006
aF50.400000000000055
aF50.64000000000006
aF50.88000000000006
aF51.12000000000006
aF51.36000000000006
aF51.600000000000065
aF51.84000000000007
aF52.000000000000064
aF52.240000000000066
aF52.84000000000007
aF53.08000000000007
aF53.32000000000007
aF53.48000000000007
aF53.640000000000065
aF53.88000000000007
aF54.12000000000007
aF54.36000000000007
aF54.60000000000007
aF54.840000000000074
aF55.08000000000008
aF55.32000000000008
aF55.56000000000008
aF55.80000000000008
aF56.040000000000084
aF56.280000000000086
aF56.52000000000009
aF56.76000000000009
aF57.00000000000009
aF57.240000000000094
aF57.480000000000096
aF57.7200000000001
aF57.9600000000001
aF58.5600000000001
aF58.800000000000104
aF59.040000000000106
aF59.28000000000011
aF59.52000000000011
aF59.76000000000011
aF60.000000000000114
aF60.240000000000116
aF60.48000000000012
aF60.72000000000012
aF60.96000000000012
aF61.200000000000124
aF61.440000000000126
aF61.68000000000013
aF61.92000000000013
aF62.16000000000013
aF62.400000000000134
aF62.640000000000136
aF62.88000000000014
aF63.12000000000014
aF63.72000000000014
aF63.96000000000014
aF64.20000000000014
aF64.36000000000014
aF64.52000000000014
aF64.76000000000013
aF65.00000000000013
aF65.24000000000012
aF65.48000000000012
aF65.72000000000011
aF65.96000000000011
aF66.2000000000001
aF66.4400000000001
aF66.68000000000009
aF66.92000000000009
aF67.16000000000008
aF67.40000000000008
aF67.56000000000007
aF67.72000000000007
aF68.32000000000006
aF68.92000000000006
aF69.52000000000005
aF70.12000000000005
aF70.72000000000004
aF71.32000000000004
aF71.92000000000003
aF72.52000000000002
aF72.76000000000002
aF73.36000000000001
aF73.96000000000001
aF74.56
aF75.16
aF75.75999999999999
aF76.35999999999999
aF76.95999999999998
aF77.55999999999997
aF78.15999999999997
aF78.75999999999996
aF79.35999999999996
aF79.95999999999995
aF80.55999999999995
aF81.15999999999994
aF81.75999999999993
aF82.35999999999993
aF82.95999999999992
aF83.19999999999992
aF83.43999999999991
aF83.67999999999991
aF83.9199999999999
aF84.1599999999999
aF84.39999999999989
aF84.63999999999989
aF84.87999999999988
aF85.11999999999988
aF85.35999999999987
aF85.59999999999987
aF85.83999999999986
aF86.07999999999986
aF86.31999999999985
aF86.55999999999985
aF86.79999999999984
aF86.95999999999984
aF87.11999999999983
aF87.27999999999983
aF87.87999999999982
aF88.47999999999982
aF88.71999999999981
aF89.31999999999981
aF89.9199999999998
aF90.5199999999998
aF90.5199999999998
aF90.75999999999979
aF91.35999999999979
aF91.35999999999979
aF91.95999999999978
aF92.55999999999977
aF93.15999999999977
aF93.75999999999976
aF94.35999999999976
aF94.95999999999975
aF95.55999999999975
aF96.15999999999974
aF96.75999999999974
aF97.35999999999973
aF97.95999999999972
aF98.55999999999972
aF99.15999999999971
aF99.7599999999997
aF99.9999999999997
aF100.2399999999997
aF100.3999999999997
aF100.63999999999969
aF101.23999999999968
aF101.83999999999968
aF102.43999999999967
aF102.67999999999967
aF103.27999999999966
aF103.87999999999965
aF104.47999999999965
aF105.07999999999964
aF105.67999999999964
aF106.27999999999963
aF106.51999999999963
aF107.11999999999962
aF107.71999999999962
aF108.31999999999961
aF108.9199999999996
aF109.5199999999996
aF110.11999999999959
aF110.71999999999959
aF111.31999999999958
aF111.91999999999958
aF112.51999999999957
aF113.91999999999958
aF115.31999999999958
aF115.47999999999958
aF115.63999999999957
aF115.87999999999957
aF116.11999999999956
aF116.35999999999956
aF116.59999999999955
aF116.83999999999955
aF117.07999999999954
aF117.23999999999954
aF117.83999999999953
aF118.43999999999953
aF119.03999999999952
aF119.63999999999952
aF119.87999999999951
aF120.4799999999995
aF121.0799999999995
aF121.6799999999995
aF122.27999999999949
aF122.87999999999948
aF123.47999999999948
aF124.07999999999947
aF124.67999999999947
aF125.27999999999946
aF125.87999999999946
aF126.47999999999945
aF127.07999999999944
aF127.67999999999944
aF128.27999999999943
aF128.87999999999943
aF129.47999999999942
aF130.07999999999942
aF130.6799999999994
aF131.2799999999994
aF131.8799999999994
aF132.1199999999994
aF132.7199999999994
aF134.1199999999994
aF134.35999999999942
aF134.59999999999943
aF134.83999999999943
aF135.07999999999944
aF135.31999999999945
aF135.55999999999946
aF135.79999999999947
aF136.03999999999948
aF136.2799999999995
aF136.4399999999995
aF136.6799999999995
aF136.8399999999995
aF136.9999999999995
aF137.59999999999948
aF137.59999999999948
aF137.8399999999995
aF138.4399999999995
aF139.03999999999948
aF139.63999999999947
aF140.23999999999947
aF140.83999999999946
aF141.43999999999946
aF142.03999999999945
aF142.63999999999945
aF143.23999999999944
aF143.23999999999944
aF143.83999999999943
aF144.43999999999943
aF145.03999999999942
aF145.63999999999942
aF146.2399999999994
aF146.8399999999994
aF147.4399999999994
aF148.8399999999994
aF150.2399999999994
aF150.47999999999942
aF150.71999999999943
aF150.95999999999944
aF151.19999999999945
aF151.43999999999946
aF151.67999999999947
aF151.83999999999946
aF152.43999999999946
aF153.83999999999946
aF154.07999999999947
aF154.31999999999948
aF154.5599999999995
aF154.7999999999995
aF155.0399999999995
aF155.27999999999952
aF155.51999999999953
aF155.75999999999954
aF155.99999999999955
aF156.23999999999955
aF156.47999999999956
aF156.71999999999957
aF156.95999999999958
aF157.1999999999996
aF157.3599999999996
aF157.95999999999958
aF158.1999999999996
aF158.79999999999959
aF159.39999999999958
aF159.99999999999957
aF160.23999999999958
aF160.83999999999958
aF161.0799999999996
aF161.67999999999958
aF161.9199999999996
aF162.51999999999958
aF162.7599999999996
aF163.3599999999996
aF163.5999999999996
aF164.1999999999996
aF164.1999999999996
aF164.1999999999996
aF164.4399999999996
aF165.0399999999996
aF165.2799999999996
aF165.8799999999996
aF166.1199999999996
aF166.7199999999996
aF166.9599999999996
aF167.5599999999996
aF167.7999999999996
aF168.3999999999996
aF168.9999999999996
aF169.5999999999996
aF170.1999999999996
aF170.79999999999959
aF171.39999999999958
aF171.6399999999996
aF172.23999999999958
aF172.83999999999958
aF173.43999999999957
aF173.67999999999958
aF173.9199999999996
aF174.1599999999996
aF174.3999999999996
aF174.63999999999962
aF174.87999999999963
aF175.11999999999964
aF175.35999999999964
aF175.59999999999965
aF175.83999999999966
aF176.07999999999967
aF176.31999999999968
aF176.5599999999997
aF176.7999999999997
aF176.9599999999997
aF177.1199999999997
aF177.2799999999997
aF177.5199999999997
aF177.7599999999997
aF177.99999999999972
aF178.23999999999972
aF178.47999999999973
aF178.71999999999974
aF178.95999999999975
aF179.19999999999976
aF179.43999999999977
aF179.67999999999978
aF179.9199999999998
aF180.1599999999998
aF180.3999999999998
aF180.63999999999982
aF180.87999999999982
aF181.11999999999983
aF181.35999999999984
aF181.59999999999985
aF181.83999999999986
aF182.07999999999987
aF182.23999999999987
aF182.39999999999986
aF182.99999999999986
aF183.23999999999987
aF183.83999999999986
aF184.43999999999986
aF185.03999999999985
aF185.63999999999984
aF186.23999999999984
aF186.83999999999983
aF187.43999999999983
aF188.03999999999982
aF188.27999999999983
aF188.87999999999982
aF188.87999999999982
aF189.11999999999983
aF189.71999999999983
aF190.31999999999982
aF190.91999999999982
aF191.15999999999983
aF191.75999999999982
aF192.35999999999981
aF192.9599999999998
aF193.5599999999998
aF194.1599999999998
aF194.7599999999998
aF195.3599999999998
aF195.95999999999978
aF196.55999999999977
aF197.15999999999977
aF197.75999999999976
aF198.35999999999976
aF198.95999999999975
aF199.55999999999975
aF199.71999999999974
aF199.95999999999975
aF200.19999999999976
aF200.43999999999977
aF200.59999999999977
aF200.83999999999978
aF201.43999999999977
aF201.67999999999978
aF202.27999999999977
aF202.51999999999978
aF202.7599999999998
aF202.9999999999998
aF203.5999999999998
aF204.1999999999998
aF204.79999999999978
aF205.39999999999978
aF205.99999999999977
aF206.23999999999978
aF206.83999999999978
aF207.43999999999977
aF208.03999999999976
aF208.63999999999976
aF209.23999999999975
aF209.83999999999975
aF210.43999999999974
aF211.03999999999974
aF211.63999999999973
aF212.23999999999972
aF212.83999999999972
aF213.4399999999997
aF214.0399999999997
aF214.6399999999997
aF214.7999999999997
aF215.3999999999997
aF215.9999999999997
aF216.59999999999968
aF217.19999999999968
aF217.79999999999967
aF217.95999999999967
aF218.19999999999968
aF218.43999999999969
aF218.6799999999997
aF218.9199999999997
aF219.1599999999997
aF219.39999999999972
aF219.63999999999973
aF219.87999999999974
aF220.03999999999974
aF220.27999999999975
aF220.87999999999974
aF221.11999999999975
aF221.71999999999974
aF222.31999999999974
aF222.91999999999973
aF223.51999999999973
aF224.11999999999972
aF224.71999999999971
aF225.3199999999997
aF225.9199999999997
aF226.5199999999997
aF227.1199999999997
aF227.7199999999997
aF228.31999999999968
aF228.91999999999967
aF229.15999999999968
aF229.3999999999997
aF229.6399999999997
aF229.8799999999997
aF230.11999999999972
aF230.35999999999973
aF230.59999999999974
aF230.83999999999975
aF231.07999999999976
aF231.31999999999977
aF231.55999999999977
aF231.79999999999978
aF232.0399999999998
aF232.2799999999998
aF232.5199999999998
aF232.75999999999982
aF232.99999999999983
aF233.23999999999984
aF233.47999999999985
aF233.71999999999986
aF233.95999999999987
aF234.19999999999987
aF234.43999999999988
aF234.6799999999999
aF234.9199999999999
aF235.0799999999999
aF235.3199999999999
aF235.55999999999992
aF235.7199999999999
aF235.8799999999999
aF236.0399999999999
aF236.27999999999992
aF236.51999999999992
aF236.75999999999993
aF236.99999999999994
aF237.23999999999995
aF237.47999999999996
aF237.71999999999997
aF237.95999999999998
aF238.2
aF238.44
aF238.68
aF238.92000000000002
aF239.16000000000003
aF239.40000000000003
aF239.64000000000004
aF239.88000000000005
aF240.12000000000006
aF240.36000000000007
aF240.52000000000007
aF240.68000000000006
aF240.92000000000007
aF241.16000000000008
aF241.4000000000001
aF241.6400000000001
aF241.8800000000001
aF242.0400000000001
aF242.28000000000011
aF242.52000000000012
aF242.76000000000013
aF243.00000000000014
aF243.24000000000015
aF243.48000000000016
aF243.72000000000017
aF243.96000000000018
aF244.56000000000017
aF245.16000000000017
aF245.16000000000017
aF245.76000000000016
aF245.76000000000016
aF246.36000000000016
aF246.96000000000015
aF247.56000000000014
aF248.16000000000014
aF248.76000000000013
aF249.36000000000013
aF249.96000000000012
aF250.56000000000012
aF251.1600000000001
aF251.7600000000001
aF252.3600000000001
aF252.9600000000001
aF253.1200000000001
aF253.3600000000001
aF253.9600000000001
aF254.5600000000001
aF255.9600000000001
aF257.36000000000007
aF258.76000000000005
aF258.9200000000001
aF258.9200000000001
aF258.9200000000001
aF258.9200000000001
aF258.9200000000001
aF258.9200000000001
aF258.9200000000001
aF258.9200000000001
aF258.9200000000001
aF258.9200000000001
aF259.0800000000001
aF259.0800000000001
aF259.2400000000001
aF259.40000000000015
aF260.00000000000017
aF260.6000000000002
aF261.2000000000002
aF261.80000000000024
aF262.40000000000026
aF263.0000000000003
aF263.6000000000003
aF264.20000000000033
aF264.80000000000035
aF265.4000000000004
aF266.0000000000004
aF266.6000000000004
aF267.20000000000044
aF267.80000000000047
aF268.4000000000005
aF268.4000000000005
aF268.5600000000005
aF268.72000000000054
aF269.32000000000056
aF269.9200000000006
aF269.9200000000006
aF270.0800000000006
aF270.24000000000063
aF270.84000000000066
aF271.4400000000007
aF271.6000000000007
aF271.76000000000073
aF271.92000000000075
aF272.0800000000008
aF272.2400000000008
aF272.40000000000083
aF273.00000000000085
aF273.6000000000009
aF273.7600000000009
aF274.3600000000009
aF274.52000000000095
aF274.680000000001
aF274.840000000001
aF275.000000000001
aF275.16000000000105
aF275.3200000000011
aF275.4800000000011
aF276.0800000000011
aF276.68000000000114
aF276.84000000000117
aF277.4400000000012
aF277.6000000000012
aF277.76000000000124
aF277.92000000000127
aF278.0800000000013
aF278.2400000000013
aF278.40000000000134
aF278.56000000000137
aF279.1600000000014
aF279.7600000000014
aF279.7600000000014
aF280.36000000000143
aF280.36000000000143
aF280.96000000000146
aF281.1200000000015
aF281.7200000000015
aF281.88000000000153
aF282.04000000000156
aF282.2000000000016
aF282.3600000000016
aF282.52000000000163
aF282.68000000000166
aF282.8400000000017
aF283.4400000000017
aF284.0400000000017
aF284.20000000000175
aF284.8000000000018
aF284.9600000000018
aF285.1200000000018
aF285.28000000000185
aF285.4400000000019
aF285.6000000000019
aF285.7600000000019
aF285.92000000000195
aF286.52000000000197
aF287.120000000002
aF287.280000000002
aF287.88000000000204
aF288.04000000000207
aF288.2000000000021
aF288.3600000000021
aF288.52000000000214
aF288.52000000000214
aF288.52000000000214
aF288.68000000000217
aF288.8400000000022
aF289.0000000000022
aF289.60000000000224
aF290.20000000000226
aF290.20000000000226
aF290.8000000000023
aF290.8000000000023
aF291.4000000000023
aF291.4000000000023
aF292.00000000000233
aF292.16000000000236
aF292.3200000000024
aF292.4800000000024
aF292.64000000000243
aF292.80000000000246
aF292.9600000000025
aF293.1200000000025
aF293.28000000000253
aF293.44000000000256
aF294.0400000000026
aF294.2000000000026
aF294.36000000000263
aF294.52000000000265
aF294.6800000000027
aF294.8400000000027
aF295.00000000000273
aF295.16000000000275
aF295.3200000000028
aF295.3200000000028
aF295.4800000000028
aF295.64000000000283
aF295.80000000000285
aF295.9600000000029
aF296.1200000000029
aF296.1200000000029
aF296.28000000000293
aF296.44000000000295
aF296.600000000003
aF296.760000000003
aF296.92000000000303
aF297.08000000000305
aF297.2400000000031
aF297.8400000000031
aF297.8400000000031
aF298.4400000000031
aF298.60000000000315
aF298.7600000000032
aF298.9200000000032
aF299.0800000000032
aF299.24000000000325
aF299.4000000000033
aF299.5600000000033
aF299.7200000000033
aF299.88000000000335
aF300.0400000000034
aF300.6400000000034
aF301.2400000000034
aF301.40000000000344
aF301.56000000000347
aF301.7200000000035
aF301.8800000000035
aF302.04000000000354
aF302.20000000000357
aF302.20000000000357
aF302.3600000000036
aF302.5200000000036
aF302.68000000000364
aF302.84000000000367
aF303.0000000000037
aF303.1600000000037
aF303.32000000000374
aF303.92000000000377
aF304.1600000000038
aF304.4000000000038
aF304.6400000000038
aF304.8800000000038
aF305.1200000000038
aF305.3600000000038
aF305.60000000000383
aF305.84000000000384
aF306.08000000000385
aF306.32000000000386
aF306.56000000000387
aF306.8000000000039
aF307.0400000000039
aF307.2800000000039
aF307.4400000000039
aF307.60000000000394
aF308.20000000000397
aF308.440000000004
aF309.040000000004
aF309.280000000004
aF309.88000000000403
aF310.48000000000405
aF311.0800000000041
aF311.6800000000041
aF312.2800000000041
aF312.88000000000415
aF313.48000000000417
aF314.0800000000042
aF314.6800000000042
aF314.9200000000042
aF315.52000000000425
aF316.12000000000427
aF316.7200000000043
aF317.3200000000043
aF317.92000000000434
aF318.52000000000436
aF319.1200000000044
aF319.7200000000044
aF319.9600000000044
aF320.2000000000044
aF320.44000000000443
aF320.68000000000444
aF320.92000000000445
aF321.5200000000045
aF322.1200000000045
aF322.7200000000045
aF323.32000000000454
aF323.92000000000456
aF324.5200000000046
aF325.1200000000046
aF325.72000000000463
aF326.32000000000465
aF326.9200000000047
aF327.5200000000047
aF328.1200000000047
aF328.72000000000475
aF329.32000000000477
aF329.9200000000048
aF330.5200000000048
aF330.7600000000048
aF331.00000000000483
aF331.24000000000484
aF331.40000000000487
aF331.5600000000049
aF332.1600000000049
aF332.76000000000494
aF333.36000000000496
aF333.36000000000496
aF333.960000000005
aF333.960000000005
aF334.560000000005
aF334.560000000005
aF335.160000000005
aF335.160000000005
aF335.76000000000505
aF335.76000000000505
aF336.3600000000051
aF336.3600000000051
aF336.9600000000051
aF336.9600000000051
aF337.5600000000051
aF337.5600000000051
aF338.16000000000514
aF338.16000000000514
aF338.76000000000516
aF338.76000000000516
aF339.3600000000052
aF339.3600000000052
aF339.9600000000052
aF339.9600000000052
aF340.56000000000523
aF340.56000000000523
aF341.16000000000525
aF341.16000000000525
aF341.7600000000053
aF341.7600000000053
aF342.3600000000053
aF342.3600000000053
aF342.9600000000053
aF342.9600000000053
aF343.56000000000535
aF343.56000000000535
aF344.16000000000537
aF344.16000000000537
aF344.7600000000054
aF344.7600000000054
aF345.3600000000054
aF345.3600000000054
aF345.96000000000544
aF345.96000000000544
aF346.56000000000546
aF346.56000000000546
aF347.1600000000055
aF347.7600000000055
aF347.7600000000055
aF348.3600000000055
aF348.60000000000554
aF349.20000000000556
aF349.8000000000056
aF350.4000000000056
aF351.0000000000056
aF351.60000000000565
aF352.2000000000057
aF352.8000000000057
aF353.4000000000057
aF353.56000000000574
aF354.16000000000577
aF354.7600000000058
aF355.3600000000058
aF355.96000000000583
aF356.56000000000586
aF357.1600000000059
aF357.7600000000059
aF358.0000000000059
aF358.60000000000593
aF359.20000000000596
aF359.800000000006
aF360.400000000006
aF360.640000000006
aF361.24000000000603
aF361.84000000000606
aF362.4400000000061
aF362.6800000000061
aF363.2800000000061
aF363.88000000000613
aF364.48000000000616
aF365.0800000000062
aF365.6800000000062
aF366.2800000000062
aF366.88000000000625
aF367.12000000000626
aF367.2800000000063
aF367.4400000000063
aF367.6800000000063
aF367.9200000000063
aF368.16000000000633
aF368.40000000000634
aF368.64000000000635
aF368.88000000000636
aF369.12000000000637
aF369.3600000000064
aF369.6000000000064
aF369.7600000000064
aF370.0000000000064
aF370.24000000000643
aF370.48000000000644
aF370.72000000000645
aF370.8800000000065
aF371.4800000000065
aF372.0800000000065
aF372.68000000000654
aF373.28000000000657
aF374.68000000000654
aF376.0800000000065
aF376.24000000000655
aF376.84000000000657
aF377.0800000000066
aF377.6800000000066
aF378.2800000000066
aF378.88000000000665
aF379.48000000000667
aF380.0800000000067
aF380.6800000000067
aF381.28000000000674
aF381.88000000000676
aF381.88000000000676
aF382.4800000000068
aF382.4800000000068
aF383.0800000000068
aF383.0800000000068
aF383.6800000000068
aF383.6800000000068
aF383.6800000000068
aF384.28000000000685
aF384.28000000000685
aF384.8800000000069
aF384.8800000000069
aF385.4800000000069
aF385.4800000000069
aF386.0800000000069
aF386.3200000000069
aF386.56000000000694
aF386.80000000000695
aF387.04000000000696
aF387.28000000000696
aF387.520000000007
aF387.760000000007
aF388.000000000007
aF388.240000000007
aF388.480000000007
aF388.720000000007
aF388.960000000007
aF389.20000000000704
aF389.36000000000706
aF389.5200000000071
aF390.1200000000071
aF390.72000000000713
aF391.32000000000716
aF391.9200000000072
aF392.5200000000072
aF393.1200000000072
aF393.36000000000723
aF393.60000000000724
aF393.84000000000725
aF394.08000000000726
aF394.32000000000727
aF394.5600000000073
aF394.8000000000073
aF395.0400000000073
aF395.2800000000073
aF395.5200000000073
aF395.7600000000073
aF396.00000000000733
aF396.24000000000734
aF396.48000000000735
aF396.72000000000736
aF396.8800000000074
aF397.0400000000074
aF397.20000000000744
aF397.80000000000746
aF398.4000000000075
aF398.6400000000075
aF399.2400000000075
aF399.84000000000754
aF400.44000000000756
aF401.0400000000076
aF401.2800000000076
aF401.5200000000076
aF402.1200000000076
aF402.72000000000764
aF402.96000000000765
aF403.5600000000077
aF404.1600000000077
aF404.4000000000077
aF405.00000000000773
aF405.24000000000774
aF405.84000000000776
aF406.4400000000078
aF407.0400000000078
aF407.64000000000783
aF407.88000000000784
aF408.12000000000785
aF408.36000000000786
aF408.60000000000787
aF408.8400000000079
aF409.0800000000079
aF409.2400000000079
aF409.4800000000079
aF409.64000000000794
aF409.64000000000794
aF409.80000000000797
aF409.80000000000797
aF409.960000000008
aF410.120000000008
aF410.28000000000804
aF410.88000000000807
aF411.4800000000081
aF412.0800000000081
aF412.68000000000814
aF413.28000000000816
aF413.8800000000082
aF414.4800000000082
aF415.0800000000082
aF416.4800000000082
aF417.8800000000082
aF418.0400000000082
aF418.20000000000823
aF418.36000000000826
aF418.9600000000083
aF419.5600000000083
aF420.1600000000083
aF420.1600000000083
aF420.76000000000835
aF420.76000000000835
aF421.36000000000837
aF421.36000000000837
aF421.9600000000084
aF421.9600000000084
aF422.5600000000084
aF422.5600000000084
aF423.16000000000844
aF423.16000000000844
aF423.76000000000846
aF423.76000000000846
aF424.3600000000085
aF424.3600000000085
aF424.9600000000085
aF424.9600000000085
aF425.56000000000853
aF425.56000000000853
aF426.16000000000855
aF426.16000000000855
aF426.7600000000086
aF426.7600000000086
aF427.3600000000086
aF427.3600000000086
aF427.9600000000086
aF427.9600000000086
aF428.56000000000864
aF428.56000000000864
aF429.16000000000867
aF429.16000000000867
aF429.7600000000087
aF429.7600000000087
aF430.3600000000087
aF430.3600000000087
aF430.96000000000873
aF430.96000000000873
aF431.56000000000876
aF431.56000000000876
aF432.1600000000088
aF432.1600000000088
aF432.7600000000088
aF432.7600000000088
aF433.3600000000088
aF433.3600000000088
aF433.96000000000885
aF433.96000000000885
aF434.56000000000887
aF434.56000000000887
aF435.1600000000089
aF435.1600000000089
aF435.7600000000089
aF435.7600000000089
aF436.36000000000894
aF436.36000000000894
aF436.96000000000896
aF437.120000000009
aF437.280000000009
aF437.44000000000904
aF437.60000000000906
aF437.7600000000091
aF437.9200000000091
aF438.08000000000914
aF438.24000000000916
aF438.4000000000092
aF439.0000000000092
aF439.16000000000923
aF439.32000000000926
aF439.4800000000093
aF439.6400000000093
aF439.80000000000933
aF439.96000000000936
aF440.1200000000094
aF440.2800000000094
aF440.44000000000943
aF440.60000000000946
aF441.2000000000095
aF441.8000000000095
aF442.4000000000095
aF443.00000000000955
aF443.6000000000096
aF444.2000000000096
aF444.8000000000096
aF445.40000000000964
aF446.00000000000966
aF446.6000000000097
aF447.2000000000097
aF447.80000000000973
aF448.40000000000975
aF449.0000000000098
aF450.40000000000975
aF450.5600000000098
aF450.7200000000098
aF450.88000000000983
aF451.04000000000985
aF451.2000000000099
aF451.3600000000099
aF451.52000000000993
aF451.68000000000995
aF451.84000000001
aF452.00000000001
aF452.60000000001
aF452.60000000001
aF453.20000000001005
aF453.20000000001005
aF453.8000000000101
aF454.4000000000101
aF454.5600000000101
aF454.5600000000101
aF454.80000000001013
aF455.04000000001014
aF455.28000000001015
aF455.52000000001016
aF455.76000000001017
aF456.0000000000102
aF456.2400000000102
aF456.4800000000102
aF456.7200000000102
aF456.9600000000102
aF457.2000000000102
aF457.44000000001023
aF457.68000000001024
aF457.84000000001026
aF458.0800000000103
aF458.2400000000103
aF458.4000000000103
aF459.00000000001035
aF459.24000000001035
aF459.8400000000104
aF460.4400000000104
aF461.0400000000104
aF461.64000000001045
aF462.24000000001047
aF462.8400000000105
aF463.4400000000105
aF464.04000000001054
aF464.64000000001056
aF465.2400000000106
aF465.8400000000106
aF466.4400000000106
aF466.60000000001065
aF466.84000000001066
aF467.08000000001067
aF467.6800000000107
aF468.2800000000107
aF468.5200000000107
aF468.76000000001073
aF469.00000000001074
aF469.24000000001075
aF469.48000000001076
aF470.0800000000108
aF470.6800000000108
aF471.28000000001083
aF471.88000000001085
aF472.4800000000109
aF473.0800000000109
aF473.6800000000109
aF474.28000000001094
aF474.88000000001097
aF474.88000000001097
aF475.480000000011
aF476.080000000011
aF476.68000000001103
aF477.28000000001106
aF477.8800000000111
aF478.4800000000111
aF479.0800000000111
aF479.68000000001115
aF480.28000000001117
aF480.8800000000112
aF481.4800000000112
aF482.08000000001124
aF482.68000000001126
aF483.2800000000113
aF483.8800000000113
aF484.48000000001133
aF485.08000000001135
aF485.6800000000114
aF485.9200000000114
aF486.1600000000114
aF486.4000000000114
aF486.5600000000114
aF487.9600000000114
aF488.2000000000114
aF488.80000000001144
aF489.40000000001146
aF490.0000000000115
aF490.6000000000115
aF491.2000000000115
aF491.80000000001155
aF492.4000000000116
aF492.6400000000116
aF492.8800000000116
aF493.0400000000116
aF493.2800000000116
aF493.44000000001165
aF493.6000000000117
aF493.8400000000117
aF494.0800000000117
aF494.3200000000117
aF494.5600000000117
aF494.8000000000117
aF495.04000000001173
aF495.28000000001174
aF495.52000000001175
aF495.6800000000118
aF495.9200000000118
aF496.1600000000118
aF496.4000000000118
aF496.6400000000118
aF496.8800000000118
aF497.1200000000118
aF497.36000000001184
aF497.60000000001185
aF497.84000000001186
aF498.08000000001186
aF498.3200000000119
aF498.5600000000119
aF498.8000000000119
aF499.0400000000119
aF499.2800000000119
aF499.5200000000119
aF499.7600000000119
aF500.00000000001194
aF500.24000000001195
aF500.48000000001196
aF500.72000000001196
aF500.960000000012
aF501.200000000012
aF501.440000000012
aF502.040000000012
aF502.280000000012
aF502.52000000001203
aF502.68000000001206
aF502.8400000000121
aF503.4400000000121
aF503.6800000000121
aF504.28000000001214
aF504.88000000001216
aF505.4800000000122
aF506.0800000000122
aF506.6800000000122
aF507.28000000001225
aF507.8800000000123
aF508.4800000000123
aF508.7200000000123
aF509.3200000000123
aF509.92000000001235
aF510.16000000001236
aF510.7600000000124
aF510.9200000000124
aF511.1600000000124
aF511.76000000001244
aF512.3600000000124
aF512.9600000000124
aF513.5600000000125
aF514.1600000000125
aF514.7600000000125
aF515.3600000000125
aF515.9600000000125
aF516.5600000000126
aF517.1600000000126
aF517.7600000000126
aF518.3600000000126
aF518.9600000000127
aF519.5600000000127
aF520.1600000000127
aF520.7600000000127
aF521.3600000000127
aF521.9600000000128
aF522.5600000000128
aF523.1600000000128
aF523.7600000000128
aF524.3600000000129
aF524.9600000000129
aF525.5600000000129
aF526.9600000000129
aF528.3600000000129
aF528.6000000000129
aF529.2000000000129
aF529.8000000000129
aF530.4000000000129
aF531.000000000013
aF531.600000000013
aF532.200000000013
aF532.800000000013
aF533.400000000013
aF533.6400000000131
aF533.800000000013
aF534.040000000013
aF534.280000000013
aF534.440000000013
aF534.600000000013
aF535.200000000013
aF535.360000000013
aF535.960000000013
aF536.560000000013
aF536.800000000013
aF537.400000000013
aF538.0000000000131
aF538.6000000000131
aF539.2000000000131
aF539.2000000000131
aF539.8000000000131
aF539.8000000000131
aF540.4000000000132
aF541.0000000000132
aF541.2400000000132
aF541.8400000000132
aF542.0800000000132
aF542.3200000000132
aF542.5600000000132
aF542.8000000000133
aF543.0400000000133
aF543.2800000000133
aF543.5200000000133
aF543.7600000000133
aF544.0000000000133
aF544.2400000000133
aF544.4800000000133
aF544.7200000000133
aF544.9600000000133
aF545.2000000000133
aF545.3600000000133
aF545.5200000000133
aF546.1200000000133
aF546.7200000000133
aF546.9600000000133
aF547.2000000000133
aF547.4400000000134
aF547.6800000000134
aF547.9200000000134
aF548.1600000000134
aF548.4000000000134
aF548.6400000000134
aF548.8800000000134
aF549.1200000000134
aF549.3600000000134
aF549.6000000000134
aF549.8400000000134
aF550.0800000000135
aF550.3200000000135
aF550.5600000000135
aF550.8000000000135
aF551.0400000000135
aF551.2800000000135
aF551.5200000000135
aF551.7600000000135
aF552.0000000000135
aF552.2400000000135
aF552.4800000000135
aF552.7200000000136
aF552.9600000000136
aF553.1200000000135
aF553.3600000000135
aF553.5200000000135
aF553.7600000000135
aF554.3600000000135
aF554.6000000000136
aF554.8400000000136
aF555.0800000000136
aF555.3200000000136
aF555.5600000000136
aF555.8000000000136
aF556.0400000000136
aF556.2800000000136
aF556.5200000000136
aF556.7600000000136
aF557.0000000000136
aF557.2400000000137
aF557.4800000000137
aF557.7200000000137
aF557.9600000000137
aF558.2000000000137
aF558.4400000000137
aF558.6800000000137
aF558.8400000000137
aF559.0800000000137
aF559.2400000000137
aF559.4800000000137
aF559.7200000000137
aF559.9600000000137
aF560.1200000000136
aF560.7200000000137
aF560.9600000000137
aF561.5600000000137
aF562.1600000000137
aF562.7600000000137
aF563.3600000000138
aF563.9600000000138
aF564.5600000000138
aF565.1600000000138
aF565.7600000000139
aF566.3600000000139
aF566.6000000000139
aF566.8400000000139
aF567.0800000000139
aF567.3200000000139
aF567.5600000000139
aF567.8000000000139
aF568.040000000014
aF568.280000000014
aF568.520000000014
aF568.760000000014
aF569.000000000014
aF569.240000000014
aF569.480000000014
aF569.720000000014
aF569.960000000014
aF570.200000000014
aF570.440000000014
aF570.680000000014
aF570.840000000014
aF571.000000000014
aF571.160000000014
aF571.760000000014
aF572.360000000014
aF572.960000000014
aF573.560000000014
aF574.1600000000141
aF574.7600000000141
aF575.3600000000141
aF575.9600000000141
aF576.5600000000142
aF577.1600000000142
aF577.7600000000142
aF578.3600000000142
aF578.9600000000142
aF580.3600000000142
aF581.7600000000142
aF581.9200000000142
aF582.1600000000142
aF582.7600000000142
aF583.3600000000142
aF583.9600000000142
aF584.5600000000143
aF585.1600000000143
aF585.7600000000143
aF586.3600000000143
aF586.9600000000144
aF587.5600000000144
aF588.1600000000144
aF588.4000000000144
aF588.6400000000144
aF588.8800000000144
aF589.1200000000144
aF589.3600000000145
aF589.6000000000145
aF589.8400000000145
aF590.0800000000145
aF590.3200000000145
aF590.5600000000145
aF590.8000000000145
aF591.0400000000145
aF591.2800000000145
aF591.5200000000145
aF591.6800000000145
aF592.2800000000145
aF592.4400000000145
aF592.6800000000145
aF593.2800000000145
aF593.5200000000145
aF593.7600000000145
aF594.0000000000146
aF594.2400000000146
aF594.4800000000146
aF594.7200000000146
aF594.9600000000146
aF595.2000000000146
aF595.4400000000146
aF595.6000000000146
aF595.8400000000146
aF596.0800000000146
aF596.3200000000146
aF596.5600000000146
aF596.8000000000146
aF597.0400000000146
aF597.2000000000146
aF597.8000000000146
aF598.4000000000146
aF599.0000000000147
aF599.6000000000147
aF600.2000000000147
aF600.8000000000147
aF600.9600000000147
aF600.9600000000147
aF600.9600000000147
aF601.5600000000147
aF601.5600000000147
aF602.1600000000147
aF602.1600000000147
aF602.7600000000148
aF602.7600000000148
aF603.3600000000148
aF603.3600000000148
aF603.9600000000148
aF604.5600000000148
aF604.7200000000148
aF604.8800000000148
aF605.0400000000147
aF605.2000000000147
aF605.8000000000147
aF605.9600000000147
aF606.5600000000147
aF606.7200000000147
aF606.8800000000147
aF607.0400000000146
aF607.2000000000146
aF607.3600000000146
aF607.9600000000146
aF608.5600000000146
aF609.1600000000146
aF609.7600000000147
aF610.3600000000147
aF610.9600000000147
aF611.5600000000147
aF612.1600000000147
aF612.7600000000148
aF614.1600000000147
aF614.3200000000147
aF614.5600000000147
aF614.8000000000147
aF615.0400000000147
aF615.2800000000148
aF615.5200000000148
aF615.7600000000148
aF616.0000000000148
aF616.2400000000148
aF616.4800000000148
aF616.7200000000148
aF616.9600000000148
aF617.2000000000148
aF617.3600000000148
aF617.5200000000148
aF617.7600000000148
aF618.0000000000148
aF618.2400000000148
aF618.4000000000148
aF618.5600000000147
aF619.1600000000147
aF619.1600000000147
aF619.7600000000148
aF619.7600000000148
aF620.3600000000148
aF620.3600000000148
aF620.9600000000148
aF621.5600000000148
aF622.1600000000149
aF622.7600000000149
aF623.3600000000149
aF623.9600000000149
aF624.2000000000149
aF624.440000000015
aF624.680000000015
aF624.920000000015
aF625.160000000015
aF625.400000000015
aF625.640000000015
aF625.880000000015
aF626.120000000015
aF626.360000000015
aF626.600000000015
aF626.840000000015
aF627.080000000015
aF627.320000000015
aF627.480000000015
aF627.640000000015
aF627.800000000015
aF628.040000000015
aF628.280000000015
aF628.520000000015
aF628.760000000015
aF629.000000000015
aF629.600000000015
aF629.840000000015
aF630.080000000015
aF630.320000000015
aF630.5600000000151
aF630.8000000000151
aF631.4000000000151
aF631.6400000000151
aF631.8800000000151
aF632.1200000000151
aF632.3600000000151
aF632.6000000000151
aF632.8400000000152
aF633.0800000000152
aF633.3200000000152
aF633.4800000000151
aF633.6400000000151
aF633.8000000000151
aF634.0400000000151
aF634.2800000000151
aF634.5200000000151
aF634.7600000000151
aF635.0000000000151
aF635.2400000000151
aF635.4800000000151
aF635.7200000000151
aF635.9600000000152
aF636.5600000000152
aF637.1600000000152
aF637.4000000000152
aF637.6400000000152
aF637.8800000000152
aF638.1200000000152
aF638.3600000000152
aF638.6000000000153
aF638.8400000000153
aF639.0800000000153
aF639.3200000000153
aF639.5600000000153
aF639.8000000000153
aF640.0400000000153
aF640.2800000000153
aF640.5200000000153
aF640.7600000000153
aF641.0000000000153
aF641.2400000000154
aF641.4800000000154
aF641.7200000000154
aF641.9600000000154
aF642.2000000000154
aF642.4400000000154
aF642.6800000000154
aF642.9200000000154
aF643.1600000000154
aF643.4000000000154
aF643.5600000000154
aF643.7200000000154
aF644.3200000000154
aF644.3200000000154
aF644.9200000000154
aF644.9200000000154
aF645.5200000000154
aF645.5200000000154
aF646.1200000000155
aF646.1200000000155
aF646.7200000000155
aF646.7200000000155
aF647.3200000000155
aF647.3200000000155
aF647.9200000000155
aF648.1600000000155
aF648.3200000000155
aF648.9200000000155
aF649.5200000000156
aF650.1200000000156
aF650.7200000000156
aF651.3200000000156
aF651.9200000000156
aF652.5200000000157
aF653.1200000000157
aF653.7200000000157
aF654.3200000000157
aF654.9200000000158
aF655.1600000000158
aF655.4000000000158
aF655.5600000000157
aF655.8000000000158
aF656.0400000000158
aF656.2800000000158
aF656.5200000000158
aF656.7600000000158
aF657.0000000000158
aF657.2400000000158
aF657.4800000000158
aF657.6400000000158
aF657.8800000000158
aF658.1200000000158
aF658.3600000000158
aF658.5200000000158
aF658.7600000000158
aF658.9200000000158
aF659.1600000000158
aF659.4000000000158
aF659.6400000000158
aF659.8000000000158
aF659.9600000000157
aF660.5600000000157
aF661.1600000000158
aF661.7600000000158
aF662.3600000000158
aF662.9600000000158
aF663.5600000000159
aF664.9600000000158
aF666.3600000000158
aF666.6000000000158
aF666.8400000000158
aF667.4400000000159
aF668.0400000000159
aF668.6400000000159
aF669.2400000000159
aF669.840000000016
aF670.440000000016
aF671.040000000016
aF671.640000000016
aF672.240000000016
aF672.480000000016
aF672.7200000000161
aF673.3200000000161
aF673.9200000000161
aF674.5200000000161
aF675.1200000000161
aF675.7200000000162
aF676.3200000000162
aF677.7200000000162
aF677.9600000000162
aF678.2000000000162
aF678.4400000000162
aF678.6800000000162
aF678.9200000000162
aF679.0800000000162
aF679.2400000000162
aF679.4000000000161
aF680.0000000000161
aF680.6000000000162
aF681.2000000000162
aF681.2000000000162
aF681.8000000000162
aF681.8000000000162
aF682.4000000000162
aF682.4000000000162
aF683.0000000000163
aF683.0000000000163
aF683.6000000000163
aF683.6000000000163
aF684.2000000000163
aF684.2000000000163
aF684.8000000000163
aF684.8000000000163
aF685.4000000000163
aF685.4000000000163
aF686.0000000000164
aF686.0000000000164
aF686.6000000000164
aF686.6000000000164
aF687.2000000000164
aF687.2000000000164
aF687.8000000000164
aF687.8000000000164
aF688.4000000000165
aF688.4000000000165
aF689.0000000000165
aF689.0000000000165
aF689.6000000000165
aF689.6000000000165
aF690.2000000000165
aF690.2000000000165
aF690.8000000000166
aF690.8000000000166
aF691.4000000000166
aF692.0000000000166
aF692.2400000000166
aF692.4000000000166
aF692.4000000000166
aF693.0000000000166
aF693.1600000000166
aF693.1600000000166
aF693.3200000000165
aF693.4800000000165
aF693.7200000000165
aF693.9600000000165
aF694.2000000000165
aF694.3600000000165
aF694.9600000000165
aF695.2000000000165
aF695.8000000000166
aF696.0400000000166
aF696.2800000000166
aF696.5200000000166
aF696.7600000000166
aF697.0000000000166
aF697.2400000000166
aF697.4800000000166
aF697.7200000000166
aF697.9600000000166
aF698.2000000000166
aF698.4400000000167
aF698.6000000000166
aF698.7600000000166
aF699.0000000000166
aF699.2400000000166
aF699.4800000000166
aF699.7200000000166
aF699.9600000000166
aF700.2000000000166
aF700.4400000000167
aF700.6000000000166
aF700.8400000000166
aF701.0800000000166
aF701.3200000000166
aF701.4800000000166
aF701.6400000000166
aF701.8800000000166
aF702.1200000000166
aF702.3600000000166
aF702.9600000000166
aF703.5600000000167
aF704.1600000000167
aF704.7600000000167
aF705.3600000000167
aF705.9600000000167
aF706.5600000000168
aF707.1600000000168
aF707.7600000000168
aF708.3600000000168
aF708.9600000000169
aF709.5600000000169
aF710.1600000000169
aF710.1600000000169
aF710.7600000000169
aF711.0000000000169
aF711.600000000017
aF712.200000000017
aF712.800000000017
aF713.400000000017
aF714.000000000017
aF714.6000000000171
aF715.2000000000171
aF715.4400000000171
aF715.6800000000171
aF715.9200000000171
aF716.1600000000171
aF716.4000000000171
aF716.6400000000172
aF716.8000000000171
aF717.0400000000171
aF717.6400000000172
aF717.8800000000172
aF718.1200000000172
aF718.3600000000172
aF718.6000000000172
aF719.2000000000172
aF719.4400000000172
aF719.6800000000172
aF719.9200000000172
aF720.1600000000172
aF720.4000000000173
aF720.6400000000173
aF720.8800000000173
aF721.0400000000172
aF721.2800000000173
aF721.8800000000173
aF722.1200000000173
aF722.3600000000173
aF722.6000000000173
aF722.8400000000173
aF723.0800000000173
aF723.3200000000173
aF723.5600000000173
aF723.8000000000173
aF724.0400000000174
aF724.2800000000174
aF724.5200000000174
aF724.7600000000174
aF725.0000000000174
aF725.2400000000174
aF725.4800000000174
aF725.7200000000174
aF725.8800000000174
aF726.1200000000174
aF726.2800000000174
aF726.8800000000174
aF727.1200000000174
aF727.7200000000174
aF728.3200000000174
aF728.9200000000175
aF729.5200000000175
aF730.1200000000175
aF730.7200000000175
aF731.3200000000176
aF731.9200000000176
aF732.5200000000176
aF732.7600000000176
aF733.3600000000176
aF733.9600000000177
aF734.5600000000177
aF735.1600000000177
aF735.7600000000177
aF736.3600000000177
aF736.9600000000178
aF737.5600000000178
aF738.1600000000178
aF738.7600000000178
aF739.3600000000179
aF739.9600000000179
aF741.3600000000179
aF742.7600000000178
aF743.0000000000178
aF743.6000000000179
aF744.2000000000179
aF744.8000000000179
aF745.4000000000179
aF745.640000000018
aF745.880000000018
aF746.120000000018
aF746.360000000018
aF746.520000000018
aF746.760000000018
aF747.000000000018
aF747.240000000018
aF747.480000000018
aF747.720000000018
aF747.960000000018
aF748.200000000018
aF748.440000000018
aF748.680000000018
aF748.920000000018
aF749.080000000018
aF749.240000000018
aF749.4000000000179
aF750.000000000018
aF750.600000000018
aF751.200000000018
aF751.800000000018
aF752.400000000018
aF753.0000000000181
aF754.400000000018
aF755.800000000018
aF756.040000000018
aF756.280000000018
aF756.5200000000181
aF756.7600000000181
aF757.0000000000181
aF757.2400000000181
aF757.4800000000181
aF757.7200000000181
aF757.9600000000181
aF758.2000000000181
aF758.4400000000181
aF758.6800000000181
aF758.9200000000181
aF759.1600000000182
aF759.4000000000182
aF759.5600000000181
aF759.7200000000181
aF759.8800000000181
aF760.4800000000181
aF760.4800000000181
aF761.0800000000181
aF761.2400000000181
aF761.2400000000181
aF761.2400000000181
aF761.2400000000181
aF761.400000000018
aF762.0000000000181
aF762.160000000018
aF762.160000000018
aF762.320000000018
aF762.920000000018
aF763.160000000018
aF763.7600000000181
aF764.3600000000181
aF764.9600000000181
aF765.5600000000181
aF766.1600000000182
aF766.7600000000182
aF767.3600000000182
aF767.9600000000182
aF768.5600000000182
aF769.9600000000182
aF771.3600000000182
aF771.5200000000182
aF772.9200000000181
aF773.0800000000181
aF773.6800000000181
aF773.6800000000181
aF774.2800000000182
aF774.4400000000181
aF774.6000000000181
aF774.7600000000181
aF774.920000000018
aF775.080000000018
aF775.240000000018
aF775.4000000000179
aF775.5600000000179
aF775.5600000000179
aF775.7200000000179
aF775.8800000000178
aF776.0400000000178
aF776.2800000000178
aF776.4400000000178
aF776.6000000000178
aF776.7600000000177
aF777.0000000000177
aF777.1600000000177
aF777.7600000000177
aF778.3600000000177
aF778.9600000000178
aF779.5600000000178
aF780.1600000000178
aF780.7600000000178
aF781.3600000000179
aF781.9600000000179
aF782.2000000000179
aF782.4400000000179
aF782.6800000000179
aF782.9200000000179
aF783.1600000000179
aF783.4000000000179
aF783.5600000000179
aF784.1600000000179
aF784.4000000000179
aF784.5600000000179
aF785.1600000000179
aF785.1600000000179
aF785.760000000018
aF785.760000000018
aF786.360000000018
aF786.360000000018
aF786.960000000018
aF787.560000000018
aF787.560000000018
aF788.160000000018
aF788.7600000000181
aF788.7600000000181
aF789.3600000000181
aF789.9600000000181
aF789.9600000000181
aF790.5600000000181
aF791.1600000000182
aF791.7600000000182
aF792.0000000000182
aF792.1600000000182
aF792.7600000000182
aF793.3600000000182
aF793.6000000000182
aF793.8400000000182
aF794.0800000000182
aF794.3200000000182
aF794.4800000000182
aF795.0800000000182
aF795.3200000000182
aF795.4800000000182
aF796.0800000000182
aF796.0800000000182
aF796.6800000000183
aF796.6800000000183
aF797.2800000000183
aF797.8800000000183
aF797.8800000000183
aF798.4800000000183
aF799.0800000000183
aF799.6800000000184
aF799.9200000000184
aF800.1600000000184
aF800.3200000000184
aF800.3200000000184
aF800.9200000000184
aF801.1600000000184
aF801.3200000000184
aF801.3200000000184
aF801.4800000000183
aF802.0800000000183
aF802.0800000000183
aF802.6800000000184
aF802.6800000000184
aF803.2800000000184
aF803.4400000000184
aF803.4400000000184
aF804.0400000000184
aF804.2000000000183
aF804.2000000000183
aF804.8000000000184
aF805.4000000000184
aF805.5600000000184
aF806.1600000000184
aF806.4000000000184
aF806.5600000000184
aF807.1600000000184
aF807.4000000000184
aF807.5600000000184
aF808.1600000000184
aF808.1600000000184
aF808.7600000000184
aF808.7600000000184
aF809.3600000000184
aF809.3600000000184
aF809.9600000000185
aF810.2000000000185
aF810.3600000000184
aF810.9600000000185
aF810.9600000000185
aF811.5600000000185
aF811.5600000000185
aF812.1600000000185
aF812.1600000000185
aF812.7600000000185
aF813.0000000000185
aF813.1600000000185
aF813.7600000000185
aF814.0000000000185
aF814.1600000000185
aF814.7600000000185
aF815.0000000000185
aF815.1600000000185
aF815.7600000000185
aF815.7600000000185
aF816.3600000000185
aF816.3600000000185
aF816.9600000000186
aF816.9600000000186
aF817.5600000000186
aF817.8000000000186
aF817.9600000000186
aF818.5600000000186
aF818.8000000000186
aF818.9600000000186
aF819.5600000000186
aF819.8000000000186
aF819.9600000000186
aF820.5600000000186
aF820.5600000000186
aF821.1600000000186
aF821.1600000000186
aF821.7600000000186
aF821.7600000000186
aF822.3600000000187
aF822.3600000000187
aF822.9600000000187
aF822.9600000000187
aF823.5600000000187
aF823.5600000000187
aF824.1600000000187
aF824.7600000000187
aF824.7600000000187
aF825.3600000000188
aF825.3600000000188
aF825.9600000000188
aF825.9600000000188
aF826.5600000000188
aF826.5600000000188
aF827.1600000000188
aF827.7600000000189
aF827.7600000000189
aF828.3600000000189
aF828.9600000000189
aF828.9600000000189
aF829.5600000000189
aF830.160000000019
aF830.160000000019
aF830.760000000019
aF831.360000000019
aF831.360000000019
aF831.960000000019
aF832.560000000019
aF832.560000000019
aF833.1600000000191
aF833.7600000000191
aF833.7600000000191
aF834.3600000000191
aF834.9600000000191
aF834.9600000000191
aF835.5600000000192
aF836.1600000000192
aF836.1600000000192
aF836.7600000000192
aF837.3600000000192
aF837.9600000000192
aF838.5600000000193
aF838.8000000000193
aF838.9600000000192
aF839.1200000000192
aF839.7200000000192
aF839.7200000000192
aF840.3200000000193
aF840.3200000000193
aF840.9200000000193
aF840.9200000000193
aF841.5200000000193
aF841.5200000000193
aF842.1200000000193
aF842.1200000000193
aF842.7200000000194
aF843.3200000000194
aF843.3200000000194
aF843.9200000000194
aF844.5200000000194
aF845.1200000000194
aF845.3600000000195
aF845.6000000000195
aF845.7600000000194
aF845.7600000000194
aF845.7600000000194
aF845.7600000000194
aF845.7600000000194
aF845.7600000000194
aF845.7600000000194
aF845.9200000000194
aF846.0800000000194
aF846.3200000000194
aF846.4800000000193
aF846.6400000000193
aF846.6400000000193
aF846.8000000000193
aF847.0400000000193
aF847.2000000000193
aF847.3600000000192
aF847.5200000000192
aF847.7600000000192
aF847.9200000000192
aF848.5200000000192
aF849.1200000000192
aF849.7200000000192
aF849.9600000000192
aF850.2000000000193
aF850.4400000000193
aF850.6800000000193
aF850.8400000000192
aF850.8400000000192
aF851.0000000000192
aF851.1600000000192
aF851.7600000000192
aF852.3600000000192
aF852.5200000000192
aF852.6800000000192
aF852.8400000000191
aF853.0000000000191
aF853.1600000000191
aF853.320000000019
aF853.480000000019
aF853.640000000019
aF853.8000000000189
aF854.400000000019
aF855.000000000019
aF855.160000000019
aF855.3200000000189
aF855.4800000000189
aF855.6400000000189
aF855.8000000000188
aF855.9600000000188
aF856.1200000000188
aF856.1200000000188
aF856.1200000000188
aF856.2800000000187
aF856.4400000000187
aF857.0400000000187
aF857.6400000000187
aF858.2400000000188
aF858.8400000000188
aF859.0800000000188
aF859.6800000000188
aF860.2800000000188
aF860.8800000000189
aF861.4800000000189
aF862.0800000000189
aF862.6800000000189
aF863.280000000019
aF863.880000000019
aF864.120000000019
aF864.360000000019
aF864.600000000019
aF865.200000000019
aF865.360000000019
aF865.960000000019
aF866.200000000019
aF866.440000000019
aF866.680000000019
aF866.9200000000191
aF867.1600000000191
aF867.4000000000191
aF867.6400000000191
aF867.8800000000191
aF868.1200000000191
aF868.3600000000191
aF868.5200000000191
aF868.5200000000191
aF868.5200000000191
aF868.680000000019
aF869.2800000000191
aF869.2800000000191
aF869.8800000000191
aF870.1200000000191
aF870.2800000000191
aF870.8800000000191
aF871.1200000000191
aF871.2800000000191
aF871.8800000000191
aF872.4800000000191
aF872.6400000000191
aF872.6400000000191
aF873.2400000000191
aF873.8400000000191
aF874.0000000000191
aF874.0000000000191
aF874.1600000000191
aF874.7600000000191
aF875.3600000000191
aF875.3600000000191
aF875.9600000000191
aF876.5600000000192
aF876.5600000000192
aF877.1600000000192
aF877.1600000000192
aF877.7600000000192
aF878.3600000000192
aF878.3600000000192
aF878.9600000000192
aF879.5600000000193
aF879.8000000000193
aF880.0400000000193
aF880.2000000000193
aF880.8000000000193
aF881.4000000000193
aF881.6400000000193
aF881.8800000000193
aF882.1200000000193
aF882.3600000000193
aF882.5200000000193
aF883.1200000000193
aF883.7200000000194
aF884.3200000000194
aF884.9200000000194
aF885.5200000000194
aF886.1200000000194
aF886.7200000000195
aF887.3200000000195
aF887.4800000000195
aF887.6400000000194
aF888.2400000000194
aF888.8400000000195
aF889.0000000000194
aF889.6000000000195
aF889.7600000000194
aF889.9200000000194
aF890.0800000000194
aF890.2400000000193
aF890.4000000000193
aF890.5600000000193
aF890.7200000000192
aF891.3200000000193
aF891.9200000000193
aF892.0800000000193
aF892.6800000000193
aF892.8400000000192
aF893.0000000000192
aF893.1600000000192
aF893.3200000000191
aF893.4800000000191
aF893.6400000000191
aF893.8800000000191
aF894.0400000000191
aF894.6400000000191
aF894.800000000019
aF895.4000000000191
aF896.0000000000191
aF896.1600000000191
aF896.320000000019
aF896.480000000019
aF896.640000000019
aF896.8000000000189
aF896.9600000000189
aF896.9600000000189
aF897.2000000000189
aF897.3600000000189
aF897.3600000000189
aF897.3600000000189
aF897.5200000000189
aF897.7600000000189
aF897.9200000000188
aF898.1600000000188
aF898.4000000000188
aF898.6400000000189
aF898.8800000000189
aF899.1200000000189
aF899.3600000000189
aF899.5200000000189
aF899.6800000000188
aF899.8400000000188
aF900.0800000000188
aF900.3200000000188
aF900.5600000000188
aF900.7200000000188
aF901.3200000000188
aF901.9200000000188
aF902.0800000000188
aF902.2400000000188
aF902.4000000000187
aF902.5600000000187
aF902.7200000000187
aF902.8800000000186
aF903.0400000000186
aF903.6400000000186
aF903.8000000000186
aF903.9600000000186
aF904.5600000000186
aF905.1600000000186
aF905.3200000000186
aF905.3200000000186
aF905.9200000000186
aF905.9200000000186
aF906.5200000000186
aF907.1200000000186
aF907.2800000000186
aF907.8800000000186
aF908.0400000000186
aF908.2000000000186
aF908.3600000000185
aF908.5200000000185
aF908.6800000000185
aF908.8400000000184
aF908.8400000000184
aF909.0000000000184
aF909.1600000000184
aF909.4000000000184
aF909.6400000000184
aF909.8800000000184
aF910.0400000000184
aF910.2000000000183
aF910.2000000000183
aF910.3600000000183
aF910.6000000000183
aF910.8400000000183
aF911.0000000000183
aF911.0000000000183
aF911.0000000000183
aF911.0000000000183
aF911.0000000000183
aF911.0000000000183
aF911.1600000000183
aF911.1600000000183
aF911.1600000000183
aF911.3200000000182
aF911.4800000000182
aF911.6400000000182
aF911.8800000000182
aF912.1200000000182
aF912.3600000000182
aF912.6000000000182
aF912.8400000000182
aF913.0800000000182
aF913.3200000000182
aF913.5600000000182
aF913.8000000000183
aF914.0400000000183
aF914.2800000000183
aF914.5200000000183
aF914.7600000000183
aF914.9200000000183
aF914.9200000000183
aF914.9200000000183
aF915.0800000000182
aF915.0800000000182
aF915.0800000000182
aF915.3200000000182
aF915.4800000000182
aF915.4800000000182
aF915.4800000000182
aF915.4800000000182
aF915.7200000000182
aF915.8800000000182
aF915.8800000000182
aF915.8800000000182
aF915.8800000000182
aF915.8800000000182
aF916.0400000000182
aF916.0400000000182
aF916.2000000000181
aF916.3600000000181
aF916.6000000000181
aF916.7600000000181
aF916.7600000000181
aF916.7600000000181
aF916.7600000000181
aF916.7600000000181
aF916.920000000018
aF917.5200000000181
aF918.1200000000181
aF918.7200000000181
aF919.3200000000181
aF919.3200000000181
aF919.9200000000181
aF920.5200000000182
aF920.5200000000182
aF921.1200000000182
aF921.7200000000182
aF921.7200000000182
aF922.3200000000182
aF922.9200000000183
aF922.9200000000183
aF923.5200000000183
aF923.5200000000183
aF924.1200000000183
aF924.1200000000183
aF924.7200000000183
aF924.7200000000183
aF925.3200000000184
aF925.3200000000184
aF925.9200000000184
aF925.9200000000184
aF926.5200000000184
aF926.5200000000184
aF927.1200000000184
aF927.1200000000184
aF927.7200000000184
aF927.9600000000185
aF928.1200000000184
aF928.7200000000184
aF928.7200000000184
aF929.3200000000185
aF929.9200000000185
aF929.9200000000185
aF930.5200000000185
aF931.1200000000185
aF931.1200000000185
aF931.7200000000186
aF931.7200000000186
aF932.3200000000186
aF932.3200000000186
aF932.9200000000186
aF933.5200000000186
aF933.5200000000186
aF934.1200000000186
aF934.7200000000187
aF934.7200000000187
aF935.3200000000187
aF935.3200000000187
aF935.9200000000187
aF936.5200000000187
aF936.5200000000187
aF937.1200000000188
aF937.1200000000188
aF937.7200000000188
aF937.7200000000188
aF938.3200000000188
aF938.3200000000188
aF938.9200000000188
aF938.9200000000188
aF939.5200000000189
aF939.5200000000189
aF940.1200000000189
aF940.1200000000189
aF940.7200000000189
aF940.7200000000189
aF941.3200000000189
aF941.4800000000189
aF941.4800000000189
aF942.0800000000189
aF942.6800000000189
aF942.6800000000189
aF943.280000000019
aF943.880000000019
aF943.880000000019
aF944.480000000019
aF945.080000000019
aF945.680000000019
aF946.2800000000191
aF946.5200000000191
aF946.7600000000191
aF947.0000000000191
aF947.1600000000191
aF947.1600000000191
aF947.1600000000191
aF947.1600000000191
aF947.1600000000191
aF947.1600000000191
aF947.1600000000191
aF947.320000000019
aF947.480000000019
aF947.640000000019
aF947.8000000000189
aF947.9600000000189
aF947.9600000000189
aF948.1200000000189
aF948.2800000000188
aF948.4400000000188
aF948.6000000000188
aF948.7600000000187
aF948.9200000000187
aF948.9200000000187
aF949.0800000000187
aF949.2400000000187
aF949.4000000000186
aF949.5600000000186
aF949.7200000000186
aF949.8800000000185
aF950.0400000000185
aF950.6400000000185
aF950.6400000000185
aF951.2400000000185
aF951.2400000000185
aF951.8400000000186
aF952.4400000000186
aF953.0400000000186
aF953.6400000000186
aF955.0400000000186
aF955.2000000000186
aF955.3600000000185
aF955.5200000000185
aF955.6800000000185
aF955.8400000000184
aF956.0000000000184
aF956.1600000000184
aF956.3200000000184
aF956.4800000000183
aF957.0800000000183
aF957.6800000000184
aF958.2800000000184
aF958.8800000000184
aF959.0400000000184
aF959.6400000000184
aF959.8800000000184
aF960.0400000000184
aF960.2000000000183
aF960.3600000000183
aF960.5200000000183
aF960.6800000000183
aF961.2800000000183
aF961.4400000000182
aF961.6000000000182
aF961.7600000000182
aF962.3600000000182
aF962.9600000000182
aF962.9600000000182
aF963.5600000000182
aF963.5600000000182
aF964.1600000000183
aF964.1600000000183
aF964.7600000000183
aF964.7600000000183
aF965.3600000000183
aF965.9600000000183
aF966.5600000000184
aF966.8000000000184
aF967.0400000000184
aF967.6400000000184
aF967.8800000000184
aF968.1200000000184
aF968.3600000000184
aF968.6000000000184
aF968.7600000000184
aF968.9200000000184
aF969.0800000000183
aF969.2400000000183
aF969.4000000000183
aF969.5600000000182
aF969.7200000000182
aF969.8800000000182
aF970.4800000000182
aF970.4800000000182
aF971.0800000000182
aF971.6800000000183
aF972.2800000000183
aF972.5200000000183
aF972.6800000000183
aF973.2800000000183
aF973.5200000000183
aF973.6800000000183
aF973.6800000000183
aF974.2800000000183
aF974.5200000000183
aF975.1200000000183
aF975.2800000000183
aF975.8800000000183
aF976.0400000000183
aF976.2000000000182
aF976.3600000000182
aF976.5200000000182
aF976.6800000000181
aF976.8400000000181
aF977.4400000000181
aF977.4400000000181
aF978.0400000000182
aF978.0400000000182
aF978.6400000000182
a.