(lp0
I0
aF0.6000000000000001
aF1.2000000000000002
aF1.8000000000000003
aF2.4000000000000004
aF3.0000000000000004
aF3.6000000000000005
aF4.200000000000001
aF4.800000000000001
aF5.4
aF6.0
aF6.6
aF7.199999999999999
aF7.799999999999999
aF9.2
aF9.44
aF9.6
aF9.76
aF9.92
aF10.52
aF11.12
aF11.719999999999999
aF12.319999999999999
aF12.319999999999999
aF12.919999999999998
aF13.519999999999998
aF14.119999999999997
aF15.519999999999998
aF16.919999999999998
aF17.159999999999997
aF17.319999999999997
aF17.479999999999997
aF18.08
aF18.68
aF18.919999999999998
aF19.159999999999997
aF19.399999999999995
aF19.559999999999995
aF19.799999999999994
aF20.399999999999995
aF20.639999999999993
aF20.879999999999992
aF21.479999999999993
aF22.079999999999995
aF22.679999999999996
aF23.279999999999998
aF23.88
aF24.48
aF25.080000000000002
aF25.680000000000003
aF25.680000000000003
aF26.280000000000005
aF26.280000000000005
aF26.880000000000006
aF26.880000000000006
aF27.480000000000008
aF27.480000000000008
aF28.08000000000001
aF28.08000000000001
aF28.68000000000001
aF28.68000000000001
aF29.280000000000012
aF29.280000000000012
aF29.880000000000013
aF29.880000000000013
aF30.480000000000015
aF30.480000000000015
aF31.080000000000016
aF31.080000000000016
aF31.680000000000017
aF31.680000000000017
aF32.280000000000015
aF32.280000000000015
aF32.88000000000002
aF32.88000000000002
aF33.48000000000002
aF33.48000000000002
aF34.08000000000002
aF34.08000000000002
aF34.68000000000002
aF34.68000000000002
aF35.28000000000002
aF35.28000000000002
aF35.880000000000024
aF35.880000000000024
aF36.480000000000025
aF36.480000000000025
aF37.08000000000003
aF37.08000000000003
aF37.68000000000003
aF37.68000000000003
aF38.28000000000003
aF38.28000000000003
aF38.88000000000003
aF38.88000000000003
aF39.48000000000003
aF39.48000000000003
aF40.080000000000034
aF40.080000000000034
aF40.680000000000035
aF40.680000000000035
aF41.28000000000004
aF41.44000000000003
aF42.040000000000035
aF42.040000000000035
aF42.640000000000036
aF42.80000000000003
aF43.400000000000034
aF43.56000000000003
aF43.72000000000003
aF43.880000000000024
aF44.04000000000002
aF44.64000000000002
aF45.24000000000002
aF45.480000000000025
aF45.72000000000003
aF45.96000000000003
aF46.20000000000003
aF46.44000000000003
aF46.680000000000035
aF46.92000000000004
aF47.16000000000004
aF47.320000000000036
aF47.48000000000003
aF48.080000000000034
aF48.080000000000034
aF48.680000000000035
aF49.28000000000004
aF49.88000000000004
aF50.48000000000004
aF51.08000000000004
aF51.68000000000004
aF52.280000000000044
aF52.880000000000045
aF53.48000000000005
aF54.08000000000005
aF54.68000000000005
aF55.28000000000005
aF55.88000000000005
aF56.480000000000054
aF56.64000000000005
aF56.88000000000005
aF57.04000000000005
aF57.200000000000045
aF57.200000000000045
aF57.36000000000004
aF57.52000000000004
aF58.12000000000004
aF58.72000000000004
aF58.96000000000004
aF59.560000000000045
aF60.160000000000046
aF60.76000000000005
aF61.36000000000005
aF61.96000000000005
aF62.56000000000005
aF63.16000000000005
aF63.760000000000055
aF64.36000000000006
aF64.60000000000005
aF65.20000000000005
aF65.80000000000004
aF66.40000000000003
aF67.00000000000003
aF67.60000000000002
aF68.20000000000002
aF68.80000000000001
aF69.4
aF70.0
aF70.6
aF71.19999999999999
aF71.79999999999998
aF72.39999999999998
aF72.63999999999997
aF72.87999999999997
aF73.11999999999996
aF73.35999999999996
aF73.59999999999995
aF73.83999999999995
aF74.07999999999994
aF74.23999999999994
aF74.47999999999993
aF74.71999999999993
aF74.95999999999992
aF75.19999999999992
aF75.43999999999991
aF75.67999999999991
aF71.87999999999991
aF72.0399999999999
aF72.6399999999999
aF72.7999999999999
aF73.39999999999989
aF73.63999999999989
aF73.87999999999988
aF74.11999999999988
aF74.35999999999987
aF74.59999999999987
aF74.83999999999986
aF74.99999999999986
aF75.59999999999985
aF75.83999999999985
aF76.43999999999984
aF77.03999999999984
aF77.63999999999983
aF78.23999999999982
aF78.83999999999982
aF79.07999999999981
aF80.47999999999982
aF81.87999999999982
aF82.03999999999982
aF82.19999999999982
aF82.79999999999981
aF83.3999999999998
aF83.9999999999998
aF84.5999999999998
aF85.19999999999979
aF85.79999999999978
aF86.39999999999978
aF86.99999999999977
aF87.59999999999977
aF88.19999999999976
aF88.79999999999976
aF89.03999999999975
aF89.27999999999975
aF89.51999999999974
aF89.75999999999974
aF89.99999999999973
aF90.23999999999972
aF90.47999999999972
aF90.71999999999971
aF90.95999999999971
aF91.1999999999997
aF91.4399999999997
aF91.6799999999997
aF91.91999999999969
aF88.11999999999969
aF88.71999999999969
aF88.95999999999968
aF89.55999999999968
aF90.15999999999967
aF90.75999999999966
aF91.35999999999966
aF91.95999999999965
aF92.19999999999965
aF92.43999999999964
aF92.67999999999964
aF92.91999999999963
aF93.15999999999963
aF93.39999999999962
aF93.55999999999962
aF94.15999999999961
aF94.31999999999961
aF94.31999999999961
aF94.9199999999996
aF95.5199999999996
aF95.5199999999996
aF96.11999999999959
aF96.11999999999959
aF96.71999999999959
aF97.31999999999958
aF97.31999999999958
aF97.91999999999958
aF97.91999999999958
aF98.51999999999957
aF98.51999999999957
aF99.11999999999956
aF100.51999999999957
aF100.67999999999957
aF100.83999999999956
aF101.43999999999956
aF102.03999999999955
aF102.63999999999955
aF103.23999999999954
aF103.83999999999953
aF104.43999999999953
aF104.67999999999952
aF104.91999999999952
aF105.15999999999951
aF105.31999999999951
aF105.31999999999951
aF105.4799999999995
aF106.0799999999995
aF106.6799999999995
aF108.0799999999995
aF108.3199999999995
aF108.91999999999949
aF109.51999999999948
aF110.11999999999948
aF110.71999999999947
aF110.95999999999947
aF111.55999999999946
aF111.79999999999946
aF112.03999999999945
aF112.27999999999945
aF112.51999999999944
aF112.75999999999944
aF112.99999999999943
aF113.23999999999943
aF113.39999999999942
aF113.55999999999942
aF114.15999999999941
aF114.31999999999941
aF114.47999999999941
aF114.6399999999994
aF114.7999999999994
aF114.9599999999994
aF115.1199999999994
aF115.71999999999939
aF115.95999999999938
aF116.55999999999938
aF117.15999999999937
aF117.75999999999937
aF118.35999999999936
aF118.95999999999935
aF119.19999999999935
aF119.35999999999935
aF119.51999999999934
aF119.67999999999934
aF119.83999999999934
aF120.43999999999933
aF120.59999999999933
aF120.75999999999932
aF120.91999999999932
aF121.07999999999932
aF121.31999999999931
aF121.5599999999993
aF121.7999999999993
aF121.9599999999993
aF122.55999999999929
aF123.15999999999929
aF123.75999999999928
aF124.35999999999927
aF124.51999999999927
aF124.67999999999927
aF124.83999999999926
aF124.99999999999926
aF125.59999999999926
aF125.75999999999925
aF125.91999999999925
aF126.07999999999925
aF126.23999999999924
aF126.39999999999924
aF126.55999999999923
aF126.71999999999923
aF126.87999999999923
aF127.11999999999922
aF127.35999999999922
aF127.59999999999921
aF127.75999999999921
aF127.9199999999992
aF128.51999999999921
aF129.1199999999992
aF129.1199999999992
aF129.7199999999992
aF129.8799999999992
aF130.0399999999992
aF130.1999999999992
aF130.3599999999992
aF130.5199999999992
aF130.5199999999992
aF130.67999999999918
aF130.83999999999918
aF131.0799999999992
aF131.23999999999918
aF131.39999999999918
aF131.39999999999918
aF131.55999999999918
aF131.7999999999992
aF132.0399999999992
aF132.2799999999992
aF132.4399999999992
aF132.5999999999992
aF132.7599999999992
aF132.9999999999992
aF133.2399999999992
aF133.47999999999922
aF133.71999999999923
aF133.95999999999924
aF134.19999999999925
aF134.43999999999926
aF134.67999999999927
aF134.91999999999928
aF135.1599999999993
aF135.3999999999993
aF135.6399999999993
aF135.8799999999993
aF136.0399999999993
aF136.1999999999993
aF136.1999999999993
aF136.1999999999993
aF136.1999999999993
aF136.1999999999993
aF136.43999999999932
aF136.67999999999932
aF136.91999999999933
aF137.07999999999933
aF137.23999999999933
aF137.39999999999932
aF137.55999999999932
aF137.55999999999932
aF138.15999999999931
aF138.3199999999993
aF138.3199999999993
aF138.3199999999993
aF138.55999999999932
aF138.79999999999933
aF139.03999999999934
aF139.27999999999935
aF139.51999999999936
aF139.67999999999935
aF139.67999999999935
aF139.83999999999935
aF139.99999999999935
aF140.23999999999936
aF140.39999999999935
aF140.55999999999935
aF140.71999999999935
aF140.95999999999935
aF141.11999999999935
aF141.35999999999936
aF141.59999999999937
aF141.83999999999938
aF142.0799999999994
aF142.3199999999994
aF142.5599999999994
aF142.7199999999994
aF142.8799999999994
aF142.8799999999994
aF143.0399999999994
aF139.23999999999938
aF139.39999999999938
aF139.99999999999937
aF140.59999999999937
aF141.19999999999936
aF141.79999999999936
aF142.39999999999935
aF143.79999999999936
aF145.19999999999936
aF145.43999999999937
aF146.03999999999937
aF146.63999999999936
aF147.23999999999936
aF147.83999999999935
aF148.43999999999934
aF148.67999999999935
aF148.91999999999936
aF149.15999999999937
aF149.39999999999938
aF149.6399999999994
aF149.7999999999994
aF150.39999999999938
aF150.99999999999937
aF151.59999999999937
aF152.19999999999936
aF152.79999999999936
aF152.95999999999935
aF152.95999999999935
aF153.55999999999935
aF153.55999999999935
aF154.15999999999934
aF154.15999999999934
aF154.75999999999934
aF154.91999999999933
aF155.15999999999934
aF155.39999999999935
aF155.55999999999935
aF155.71999999999935
aF156.31999999999934
aF156.91999999999933
aF157.51999999999933
aF158.11999999999932
aF158.71999999999932
aF158.8799999999993
aF159.0399999999993
aF159.1999999999993
aF159.1999999999993
aF159.3599999999993
aF159.5199999999993
aF159.6799999999993
aF160.2799999999993
aF160.2799999999993
aF160.87999999999928
aF161.03999999999928
aF161.19999999999928
aF161.35999999999927
aF161.51999999999927
aF161.51999999999927
aF161.67999999999927
aF161.83999999999926
aF161.99999999999926
aF162.59999999999926
aF163.19999999999925
aF163.19999999999925
aF163.79999999999924
aF163.95999999999924
aF164.11999999999924
aF164.27999999999923
aF164.43999999999923
aF164.43999999999923
aF164.59999999999923
aF164.75999999999922
aF164.91999999999922
aF164.91999999999922
aF165.07999999999922
aF165.2399999999992
aF165.3999999999992
aF165.3999999999992
aF165.5599999999992
aF165.7199999999992
aF165.8799999999992
aF165.8799999999992
aF166.0399999999992
aF166.1999999999992
aF166.4399999999992
aF166.5999999999992
aF166.7599999999992
aF166.9199999999992
aF167.1599999999992
aF167.3199999999992
aF167.4799999999992
aF167.6399999999992
aF168.23999999999918
aF168.39999999999918
aF168.99999999999918
aF169.15999999999917
aF169.31999999999917
aF169.47999999999917
aF169.63999999999916
aF169.79999999999916
aF169.95999999999916
aF170.19999999999916
aF170.35999999999916
aF170.51999999999916
aF170.67999999999915
aF171.27999999999915
aF171.43999999999915
aF172.03999999999914
aF172.19999999999914
aF172.35999999999913
aF172.51999999999913
aF172.67999999999913
aF172.83999999999912
aF173.07999999999913
aF173.31999999999914
aF173.55999999999915
aF173.79999999999916
aF173.95999999999916
aF174.11999999999915
aF174.27999999999915
aF174.51999999999916
aF174.75999999999917
aF175.35999999999916
aF175.95999999999916
aF176.55999999999915
aF176.79999999999916
aF177.03999999999917
aF177.27999999999918
aF177.5199999999992
aF177.7599999999992
aF177.9999999999992
aF178.2399999999992
aF178.47999999999922
aF178.63999999999922
aF179.2399999999992
aF179.8399999999992
aF180.4399999999992
aF181.0399999999992
aF181.6399999999992
aF182.23999999999918
aF182.83999999999918
aF183.43999999999917
aF184.03999999999917
aF184.63999999999916
aF185.23999999999916
aF185.83999999999915
aF186.43999999999915
aF187.03999999999914
aF187.63999999999913
aF188.23999999999913
aF188.83999999999912
aF189.43999999999912
aF190.0399999999991
aF190.0399999999991
aF190.6399999999991
aF191.2399999999991
aF191.2399999999991
aF191.8399999999991
aF193.2399999999991
aF194.6399999999991
aF194.87999999999911
aF195.11999999999912
aF195.35999999999913
aF195.51999999999913
aF195.75999999999914
aF195.91999999999913
aF196.51999999999913
aF197.11999999999912
aF197.27999999999912
aF197.87999999999911
aF198.4799999999991
aF198.71999999999912
aF198.87999999999911
aF199.4799999999991
aF200.0799999999991
aF200.6799999999991
aF200.6799999999991
aF201.2799999999991
aF201.2799999999991
aF201.5199999999991
aF202.1199999999991
aF202.7199999999991
aF203.31999999999908
aF203.5599999999991
aF203.7999999999991
aF203.9599999999991
aF204.1999999999991
aF204.43999999999912
aF204.67999999999913
aF204.91999999999913
aF205.15999999999914
aF205.39999999999915
aF205.63999999999916
aF205.87999999999917
aF206.11999999999918
aF206.3599999999992
aF206.5999999999992
aF206.8399999999992
aF207.07999999999922
aF207.31999999999923
aF207.55999999999923
aF207.71999999999923
aF207.71999999999923
aF208.31999999999923
aF208.91999999999922
aF209.15999999999923
aF209.39999999999924
aF209.63999999999925
aF209.87999999999926
aF210.11999999999927
aF210.27999999999926
aF210.87999999999926
aF211.11999999999927
aF211.27999999999926
aF211.43999999999926
aF212.03999999999925
aF212.63999999999925
aF213.23999999999924
aF213.83999999999924
aF214.43999999999923
aF215.03999999999922
aF215.63999999999922
aF216.2399999999992
aF216.8399999999992
aF218.2399999999992
aF219.63999999999922
aF219.79999999999922
aF220.3999999999992
aF220.63999999999922
aF221.2399999999992
aF221.8399999999992
aF222.4399999999992
aF223.0399999999992
aF223.6399999999992
aF224.23999999999918
aF224.83999999999918
aF225.0799999999992
aF225.3199999999992
aF225.5599999999992
aF225.7199999999992
aF225.8799999999992
aF226.0399999999992
aF226.6399999999992
aF226.7999999999992
aF226.95999999999918
aF227.55999999999918
aF227.71999999999917
aF227.87999999999917
aF228.47999999999917
aF229.07999999999916
aF229.23999999999916
aF229.39999999999915
aF229.39999999999915
aF229.39999999999915
aF229.63999999999916
aF229.87999999999917
aF230.47999999999917
aF230.71999999999917
aF231.31999999999917
aF231.55999999999918
aF231.7999999999992
aF232.0399999999992
aF232.2799999999992
aF232.51999999999921
aF232.75999999999922
aF232.91999999999922
aF233.15999999999923
aF233.39999999999924
aF233.55999999999923
aF233.79999999999924
aF233.95999999999924
aF233.95999999999924
aF233.95999999999924
aF234.19999999999925
aF234.43999999999926
aF234.67999999999927
aF234.91999999999928
aF235.1599999999993
aF235.31999999999928
aF235.91999999999928
aF235.91999999999928
aF236.51999999999927
aF236.51999999999927
aF237.11999999999927
aF237.11999999999927
aF237.71999999999926
aF237.71999999999926
aF238.31999999999925
aF238.47999999999925
aF239.07999999999925
aF239.07999999999925
aF239.67999999999924
aF239.67999999999924
aF240.27999999999923
aF240.27999999999923
aF240.87999999999923
aF240.87999999999923
aF241.47999999999922
aF241.47999999999922
aF242.07999999999922
aF242.31999999999923
aF242.91999999999922
aF243.51999999999921
aF244.1199999999992
aF244.7199999999992
aF244.9599999999992
aF245.1199999999992
aF245.35999999999922
aF245.9599999999992
aF246.19999999999922
aF246.43999999999923
aF246.67999999999924
aF246.91999999999925
aF247.15999999999926
aF247.39999999999927
aF247.63999999999928
aF247.87999999999928
aF248.1199999999993
aF248.2799999999993
aF248.87999999999928
aF249.47999999999928
aF249.7199999999993
aF249.9599999999993
aF250.1199999999993
aF250.2799999999993
aF250.87999999999928
aF251.47999999999928
aF252.07999999999927
aF252.67999999999927
aF252.91999999999928
aF253.07999999999927
aF253.31999999999928
aF253.47999999999928
aF253.63999999999928
aF253.79999999999927
aF253.95999999999927
aF254.11999999999927
aF254.27999999999926
aF254.43999999999926
aF254.59999999999926
aF254.75999999999925
aF254.91999999999925
aF255.07999999999925
aF255.23999999999924
aF255.23999999999924
aF255.47999999999925
aF255.71999999999926
aF255.87999999999926
aF255.87999999999926
aF256.11999999999927
aF256.3599999999993
aF256.5999999999993
aF256.8399999999993
aF257.0799999999993
aF257.3199999999993
aF257.5599999999993
aF257.79999999999933
aF258.03999999999934
aF258.19999999999936
aF258.19999999999936
aF258.19999999999936
aF258.19999999999936
aF258.4399999999994
aF258.6799999999994
aF258.9199999999994
aF259.1599999999994
aF259.3999999999994
aF259.6399999999994
aF259.8799999999994
aF260.11999999999944
aF260.35999999999945
aF260.59999999999945
aF260.83999999999946
aF261.0799999999995
aF261.3199999999995
aF261.5599999999995
aF261.7999999999995
aF261.9599999999995
aF262.11999999999955
aF262.11999999999955
aF262.11999999999955
aF262.35999999999956
aF262.5199999999996
aF263.1199999999996
aF263.71999999999963
aF264.31999999999965
aF264.31999999999965
aF264.31999999999965
aF264.9199999999997
aF264.9199999999997
aF265.5199999999997
aF265.6799999999997
aF266.27999999999975
aF266.27999999999975
aF266.43999999999977
aF267.0399999999998
aF267.6399999999998
aF267.79999999999984
aF267.79999999999984
aF268.39999999999986
aF268.39999999999986
aF268.9999999999999
aF269.1599999999999
aF269.31999999999994
aF269.91999999999996
aF270.08
aF270.24
aF270.84000000000003
aF271.00000000000006
aF271.24000000000007
aF271.8400000000001
aF272.0000000000001
aF272.16000000000014
aF272.76000000000016
aF272.9200000000002
aF273.0800000000002
aF273.68000000000023
aF273.84000000000026
aF274.0000000000003
aF274.6000000000003
aF274.76000000000033
aF274.92000000000036
aF275.0800000000004
aF275.2400000000004
aF275.84000000000043
aF276.00000000000045
aF276.1600000000005
aF276.7600000000005
aF276.9200000000005
aF277.08000000000055
aF277.32000000000056
aF277.9200000000006
aF278.0800000000006
aF278.68000000000063
aF279.28000000000065
aF279.8800000000007
aF280.4800000000007
aF281.0800000000007
aF281.68000000000075
aF282.28000000000077
aF282.28000000000077
aF282.8800000000008
aF283.1200000000008
aF283.7200000000008
aF284.32000000000085
aF284.92000000000087
aF285.5200000000009
aF286.1200000000009
aF286.72000000000094
aF287.32000000000096
aF287.920000000001
aF288.520000000001
aF288.68000000000103
aF288.84000000000106
aF289.0000000000011
aF289.6000000000011
aF290.2000000000011
aF290.80000000000115
aF291.40000000000117
aF292.0000000000012
aF292.1600000000012
aF292.32000000000124
aF292.48000000000127
aF292.6400000000013
aF292.8000000000013
aF292.96000000000134
aF293.56000000000137
aF293.7200000000014
aF294.3200000000014
aF294.92000000000144
aF295.52000000000146
aF295.6800000000015
aF295.8400000000015
aF296.00000000000153
aF296.16000000000156
aF296.3200000000016
aF296.4800000000016
aF297.08000000000163
aF297.68000000000166
aF298.2800000000017
aF298.4400000000017
aF299.0400000000017
aF299.64000000000175
aF300.24000000000177
aF300.8400000000018
aF301.4400000000018
aF302.04000000000184
aF302.64000000000186
aF303.2400000000019
aF303.8400000000019
aF304.44000000000193
aF305.04000000000195
aF305.640000000002
aF305.880000000002
aF306.120000000002
aF306.720000000002
aF307.32000000000204
aF307.56000000000205
aF308.16000000000207
aF308.3200000000021
aF308.4800000000021
aF308.64000000000215
aF308.80000000000217
aF308.9600000000022
aF309.5600000000022
aF310.16000000000224
aF310.32000000000227
aF310.4800000000023
aF311.0800000000023
aF311.3200000000023
aF311.48000000000235
aF311.6400000000024
aF311.8000000000024
aF311.9600000000024
aF312.12000000000245
aF312.2800000000025
aF312.8800000000025
aF313.4800000000025
aF313.64000000000254
aF313.80000000000257
aF314.4000000000026
aF315.0000000000026
aF315.16000000000264
aF315.32000000000266
aF315.4800000000027
aF315.6400000000027
aF315.80000000000274
aF316.40000000000276
aF316.5600000000028
aF316.7200000000028
aF317.32000000000284
aF317.92000000000286
aF318.5200000000029
aF318.5200000000029
aF319.1200000000029
aF319.1200000000029
aF319.7200000000029
aF319.88000000000295
aF320.12000000000296
aF320.36000000000297
aF320.520000000003
aF320.760000000003
aF320.92000000000303
aF321.08000000000305
aF321.2400000000031
aF321.4800000000031
aF321.7200000000031
aF321.9600000000031
aF322.12000000000313
aF322.72000000000315
aF323.3200000000032
aF323.9200000000032
aF324.0800000000032
aF324.68000000000325
aF325.28000000000327
aF325.8800000000033
aF326.4800000000033
aF327.8800000000033
aF329.28000000000327
aF330.68000000000325
aF332.0800000000032
aF332.24000000000325
aF332.4000000000033
aF332.6400000000033
aF332.8800000000033
aF333.1200000000033
aF333.2800000000033
aF333.44000000000335
aF333.44000000000335
aF333.44000000000335
aF333.68000000000336
aF333.92000000000337
aF334.0800000000034
aF334.2400000000034
aF334.40000000000344
aF334.64000000000345
aF334.88000000000346
aF335.1200000000035
aF335.2800000000035
aF335.8800000000035
aF336.48000000000354
aF337.08000000000357
aF337.08000000000357
aF337.6800000000036
aF338.2800000000036
aF338.2800000000036
aF338.88000000000363
aF339.48000000000366
aF340.0800000000037
aF340.6800000000037
aF341.2800000000037
aF341.88000000000375
aF342.48000000000377
aF343.0800000000038
aF343.6800000000038
aF344.28000000000384
aF344.88000000000386
aF345.4800000000039
aF346.0800000000039
aF346.68000000000393
aF347.28000000000395
aF347.880000000004
aF348.480000000004
aF349.080000000004
aF349.32000000000403
aF349.56000000000404
aF350.16000000000406
aF350.7600000000041
aF351.3600000000041
aF351.96000000000413
aF352.56000000000415
aF353.1600000000042
aF353.7600000000042
aF353.7600000000042
aF354.3600000000042
aF354.3600000000042
aF354.96000000000424
aF354.96000000000424
aF355.56000000000427
aF355.56000000000427
aF356.1600000000043
aF356.1600000000043
aF356.7600000000043
aF356.7600000000043
aF357.36000000000433
aF357.36000000000433
aF357.96000000000436
aF357.96000000000436
aF358.5600000000044
aF358.5600000000044
aF359.1600000000044
aF359.7600000000044
aF360.36000000000445
aF360.96000000000447
aF361.2000000000045
aF361.3600000000045
aF361.52000000000453
aF361.68000000000455
aF362.2800000000046
aF362.2800000000046
aF362.8800000000046
aF363.4800000000046
aF363.64000000000465
aF364.24000000000467
aF364.4000000000047
aF364.5600000000047
aF364.72000000000475
aF364.88000000000477
aF365.4800000000048
aF365.6400000000048
aF365.80000000000484
aF366.40000000000487
aF366.40000000000487
aF367.0000000000049
aF367.2400000000049
aF367.8400000000049
aF368.44000000000494
aF369.04000000000497
aF369.640000000005
aF370.240000000005
aF370.84000000000503
aF371.44000000000506
aF371.6000000000051
aF372.2000000000051
aF372.36000000000513
aF372.52000000000515
aF372.6800000000052
aF372.8400000000052
aF373.00000000000523
aF373.16000000000525
aF373.3200000000053
aF373.9200000000053
aF374.5200000000053
aF375.12000000000535
aF376.5200000000053
aF377.9200000000053
aF378.0800000000053
aF378.68000000000535
aF379.2800000000054
aF379.4400000000054
aF379.6000000000054
aF379.76000000000545
aF379.9200000000055
aF380.0800000000055
aF380.2400000000055
aF380.2400000000055
aF380.2400000000055
aF380.40000000000555
aF380.5600000000056
aF380.7200000000056
aF381.3200000000056
aF381.92000000000564
aF382.08000000000567
aF382.2400000000057
aF382.4000000000057
aF382.56000000000574
aF382.56000000000574
aF382.56000000000574
aF382.72000000000577
aF382.8800000000058
aF383.0400000000058
aF383.0400000000058
aF383.0400000000058
aF383.0400000000058
aF383.20000000000584
aF383.36000000000587
aF383.6000000000059
aF383.8400000000059
aF384.0800000000059
aF384.3200000000059
aF384.5600000000059
aF384.8000000000059
aF385.04000000000593
aF385.28000000000594
aF385.44000000000597
aF385.680000000006
aF385.840000000006
aF386.000000000006
aF386.000000000006
aF386.000000000006
aF386.24000000000603
aF386.48000000000604
aF386.72000000000605
aF386.96000000000606
aF387.1200000000061
aF387.3600000000061
aF387.6000000000061
aF387.8400000000061
aF388.0800000000061
aF388.32000000000613
aF388.56000000000614
aF388.80000000000615
aF389.04000000000616
aF389.28000000000617
aF389.5200000000062
aF389.7600000000062
aF390.0000000000062
aF390.2400000000062
aF390.4800000000062
aF390.7200000000062
aF390.96000000000623
aF391.20000000000624
aF391.44000000000625
aF391.6000000000063
aF391.8400000000063
aF392.0800000000063
aF392.2400000000063
aF392.4800000000063
aF392.64000000000635
aF392.64000000000635
aF392.88000000000636
aF393.12000000000637
aF389.32000000000636
aF389.56000000000637
aF389.8000000000064
aF390.0400000000064
aF390.2800000000064
aF390.5200000000064
aF390.7600000000064
aF391.0000000000064
aF391.24000000000643
aF391.48000000000644
aF391.72000000000645
aF391.96000000000646
aF392.20000000000647
aF392.4400000000065
aF392.6800000000065
aF392.9200000000065
aF393.0800000000065
aF393.0800000000065
aF393.0800000000065
aF393.24000000000655
aF393.48000000000656
aF393.72000000000656
aF393.9600000000066
aF394.2000000000066
aF394.3600000000066
aF394.3600000000066
aF394.3600000000066
aF394.6000000000066
aF394.8400000000066
aF395.08000000000663
aF395.32000000000664
aF395.56000000000665
aF395.80000000000666
aF396.04000000000667
aF396.2800000000067
aF396.5200000000067
aF396.7600000000067
aF397.0000000000067
aF397.2400000000067
aF397.4800000000067
aF397.72000000000673
aF397.96000000000674
aF398.20000000000675
aF398.44000000000676
aF398.6000000000068
aF398.7600000000068
aF399.0000000000068
aF399.24000000000683
aF399.48000000000684
aF399.72000000000685
aF399.96000000000686
aF400.1200000000069
aF400.3600000000069
aF400.6000000000069
aF400.8400000000069
aF401.0800000000069
aF401.24000000000694
aF401.40000000000697
aF402.000000000007
aF402.000000000007
aF402.600000000007
aF403.20000000000704
aF403.80000000000706
aF404.4000000000071
aF405.0000000000071
aF405.6000000000071
aF406.20000000000715
aF406.8000000000072
aF407.4000000000072
aF408.0000000000072
aF408.2400000000072
aF408.84000000000725
aF409.08000000000726
aF409.32000000000727
aF409.5600000000073
aF409.7200000000073
aF409.8800000000073
aF410.04000000000735
aF410.28000000000736
aF410.52000000000737
aF410.7600000000074
aF410.9200000000074
aF411.08000000000743
aF411.24000000000746
aF411.48000000000746
aF411.7200000000075
aF411.9600000000075
aF412.1200000000075
aF412.28000000000753
aF412.88000000000756
aF413.4800000000076
aF414.0800000000076
aF414.2400000000076
aF414.40000000000765
aF414.5600000000077
aF414.7200000000077
aF414.8800000000077
aF415.12000000000774
aF415.36000000000774
aF415.52000000000777
aF415.6800000000078
aF415.9200000000078
aF416.1600000000078
aF416.4000000000078
aF416.56000000000785
aF416.7200000000079
aF417.3200000000079
aF417.4800000000079
aF417.64000000000794
aF417.80000000000797
aF418.040000000008
aF418.280000000008
aF418.520000000008
aF418.680000000008
aF418.84000000000805
aF419.0000000000081
aF419.2400000000081
aF419.4000000000081
aF419.6400000000081
aF419.8800000000081
aF420.04000000000815
aF420.28000000000816
aF420.52000000000817
aF420.7600000000082
aF421.0000000000082
aF421.2400000000082
aF421.4800000000082
aF421.7200000000082
aF421.9600000000082
aF422.20000000000823
aF422.44000000000824
aF422.68000000000825
aF422.92000000000826
aF419.12000000000825
aF419.2800000000083
aF419.8800000000083
aF419.8800000000083
aF420.4800000000083
aF420.4800000000083
aF421.08000000000834
aF421.08000000000834
aF421.68000000000836
aF421.68000000000836
aF422.2800000000084
aF422.2800000000084
aF422.8800000000084
aF423.48000000000843
aF424.08000000000845
aF425.48000000000843
aF425.64000000000846
aF427.04000000000843
aF427.28000000000844
aF427.88000000000847
aF428.4800000000085
aF429.0800000000085
aF429.68000000000853
aF430.28000000000856
aF430.8800000000086
aF431.4800000000086
aF432.0800000000086
aF432.68000000000865
aF433.28000000000867
aF434.68000000000865
aF434.8400000000087
aF435.0000000000087
aF435.1600000000087
aF435.76000000000874
aF436.36000000000877
aF436.9600000000088
aF437.2000000000088
aF437.8000000000088
aF438.40000000000884
aF439.00000000000887
aF439.6000000000089
aF440.2000000000089
aF440.80000000000894
aF441.40000000000896
aF442.000000000009
aF442.600000000009
aF443.200000000009
aF443.80000000000905
aF444.4000000000091
aF445.0000000000091
aF445.2400000000091
aF445.8400000000091
aF446.08000000000914
aF446.32000000000914
aF446.56000000000915
aF446.7200000000092
aF447.3200000000092
aF447.3200000000092
aF447.9200000000092
aF447.9200000000092
aF448.52000000000925
aF449.12000000000927
aF449.3600000000093
aF449.9600000000093
aF450.5600000000093
aF451.16000000000935
aF451.76000000000937
aF452.3600000000094
aF452.9600000000094
aF453.12000000000944
aF453.28000000000947
aF453.5200000000095
aF453.7600000000095
aF454.0000000000095
aF454.2400000000095
aF454.4800000000095
aF454.64000000000954
aF454.64000000000954
aF454.80000000000956
aF455.04000000000957
aF455.2800000000096
aF455.5200000000096
aF455.6800000000096
aF455.84000000000964
aF456.44000000000966
aF457.0400000000097
aF457.6400000000097
aF457.80000000000973
aF458.40000000000975
aF459.0000000000098
aF459.6000000000098
aF459.6000000000098
aF460.2000000000098
aF460.2000000000098
aF460.80000000000985
aF461.40000000000987
aF462.0000000000099
aF462.6000000000099
aF462.8400000000099
aF463.08000000000993
aF463.32000000000994
aF463.56000000000995
aF464.16000000001
aF464.32000000001
aF464.56000000001
aF465.16000000001003
aF465.76000000001005
aF466.3600000000101
aF466.9600000000101
aF467.5600000000101
aF468.16000000001014
aF468.76000000001017
aF468.9200000000102
aF468.9200000000102
aF469.5200000000102
aF469.7600000000102
aF469.92000000001025
aF470.0800000000103
aF470.2400000000103
aF470.8400000000103
aF470.8400000000103
aF471.44000000001034
aF472.04000000001037
aF472.6400000000104
aF473.2400000000104
aF473.84000000001043
aF475.2400000000104
aF476.6400000000104
aF478.04000000001037
aF478.2800000000104
aF478.8800000000104
aF479.4800000000104
aF480.08000000001044
aF480.68000000001047
aF481.2800000000105
aF481.5200000000105
aF481.6800000000105
aF481.92000000001053
aF482.16000000001054
aF482.40000000001055
aF482.64000000001056
aF482.8000000000106
aF483.4000000000106
aF484.00000000001063
aF484.60000000001065
aF484.7600000000107
aF485.3600000000107
aF485.5200000000107
aF485.68000000001075
aF486.2800000000108
aF486.8800000000108
aF486.8800000000108
aF487.4800000000108
aF487.4800000000108
aF488.08000000001084
aF488.24000000001087
aF488.24000000001087
aF488.8400000000109
aF489.0800000000109
aF489.6800000000109
aF490.28000000001094
aF490.88000000001097
aF492.28000000001094
aF493.6800000000109
aF493.84000000001095
aF494.00000000001097
aF494.160000000011
aF494.320000000011
aF494.48000000001105
aF495.08000000001107
aF495.6800000000111
aF495.8400000000111
aF496.00000000001114
aF496.16000000001117
aF496.3200000000112
aF496.9200000000112
aF497.52000000001124
aF498.12000000001126
aF498.7200000000113
aF499.3200000000113
aF499.9200000000113
aF500.16000000001134
aF500.76000000001136
aF501.3600000000114
aF501.9600000000114
aF502.5600000000114
aF503.16000000001145
aF503.7600000000115
aF504.3600000000115
aF504.5200000000115
aF504.68000000001155
aF504.68000000001155
aF504.68000000001155
aF504.68000000001155
aF504.84000000001157
aF504.84000000001157
aF504.84000000001157
aF505.0000000000116
aF505.0000000000116
aF505.0000000000116
aF505.0000000000116
aF505.0000000000116
aF505.0000000000116
aF505.1600000000116
aF505.1600000000116
aF505.1600000000116
aF505.1600000000116
aF505.32000000001165
aF505.32000000001165
aF505.32000000001165
aF505.32000000001165
aF505.48000000001167
aF505.6400000000117
aF505.6400000000117
aF505.6400000000117
aF505.8000000000117
aF505.8000000000117
aF505.96000000001175
aF505.96000000001175
aF506.12000000001177
aF506.2800000000118
aF506.2800000000118
aF506.2800000000118
aF506.2800000000118
aF506.2800000000118
aF506.2800000000118
aF506.2800000000118
aF506.5200000000118
aF506.7600000000118
aF507.0000000000118
aF507.24000000001183
aF507.48000000001184
aF507.72000000001185
aF507.96000000001186
aF508.20000000001187
aF508.4400000000119
aF508.6800000000119
aF508.9200000000119
aF509.1600000000119
aF509.4000000000119
aF509.6400000000119
aF509.88000000001193
aF510.12000000001194
aF510.36000000001195
aF510.60000000001196
aF510.84000000001197
aF511.080000000012
aF511.320000000012
aF511.560000000012
aF511.800000000012
aF512.040000000012
aF512.280000000012
aF512.880000000012
aF513.120000000012
aF513.3600000000121
aF513.6000000000121
aF513.760000000012
aF514.000000000012
aF514.160000000012
aF514.760000000012
aF515.3600000000121
aF515.9600000000121
aF516.5600000000121
aF516.8000000000121
aF517.0400000000121
aF517.2800000000121
aF517.5200000000121
aF517.7600000000122
aF518.0000000000122
aF518.2400000000122
aF518.4800000000122
aF518.7200000000122
aF518.9600000000122
aF519.2000000000122
aF519.4400000000122
aF519.6800000000122
aF519.9200000000122
aF520.1600000000122
aF520.3200000000122
aF520.3200000000122
aF520.5600000000122
aF520.7200000000122
aF520.8800000000122
aF521.4800000000122
aF522.0800000000122
aF522.0800000000122
aF522.6800000000122
aF522.6800000000122
aF523.2800000000123
aF523.8800000000123
aF524.1200000000123
aF524.3600000000123
aF524.5200000000123
aF525.1200000000123
aF525.7200000000123
aF525.7200000000123
aF525.8800000000123
aF526.1200000000123
aF526.2800000000123
aF526.8800000000123
aF527.4800000000123
aF527.7200000000123
aF527.8800000000123
aF528.4800000000123
aF529.0800000000123
aF530.4800000000123
aF530.6400000000123
aF531.2400000000123
aF531.8400000000123
aF531.8400000000123
aF532.4400000000123
aF532.4400000000123
aF533.0400000000124
aF533.0400000000124
aF533.6400000000124
aF533.6400000000124
aF534.2400000000124
aF534.2400000000124
aF534.8400000000124
aF534.8400000000124
aF535.4400000000124
aF535.4400000000124
aF536.0400000000125
aF536.0400000000125
aF536.6400000000125
aF536.6400000000125
aF537.2400000000125
aF537.2400000000125
aF537.8400000000125
aF537.8400000000125
aF538.4400000000126
aF538.4400000000126
aF539.0400000000126
aF539.0400000000126
aF539.6400000000126
aF539.6400000000126
aF539.6400000000126
aF540.2400000000126
aF540.8400000000127
aF541.4400000000127
aF541.6800000000127
aF541.8400000000127
aF541.8400000000127
aF542.4400000000127
aF542.6000000000126
aF543.2000000000127
aF543.8000000000127
aF544.0400000000127
aF544.2800000000127
aF544.4400000000127
aF545.0400000000127
aF545.6400000000127
aF546.2400000000127
aF546.8400000000128
aF547.4400000000128
aF548.0400000000128
aF548.6400000000128
aF549.2400000000129
aF550.6400000000128
aF550.8000000000128
aF550.9600000000128
aF551.1200000000127
aF551.2800000000127
aF551.4400000000127
aF551.6000000000126
aF552.2000000000127
aF552.8000000000127
aF553.4000000000127
aF553.6400000000127
aF553.8800000000127
aF554.0400000000127
aF554.0400000000127
aF554.2000000000127
aF554.8000000000127
aF555.4000000000127
aF555.5600000000127
aF556.1600000000127
aF556.7600000000127
aF556.9200000000127
aF557.5200000000127
aF557.7600000000127
aF558.0000000000127
aF558.1600000000127
aF558.3200000000127
aF558.4800000000126
aF558.6400000000126
aF558.8000000000126
aF558.9600000000125
aF558.9600000000125
aF559.1200000000125
aF559.2800000000125
aF559.4400000000124
aF559.4400000000124
aF559.6000000000124
aF559.7600000000124
aF559.9200000000124
aF559.9200000000124
aF560.0800000000123
aF560.2400000000123
aF560.4000000000123
aF560.4000000000123
aF560.5600000000122
aF560.7200000000122
aF560.9600000000122
aF561.1200000000122
aF561.2800000000121
aF561.8800000000122
aF562.4800000000122
aF563.0800000000122
aF563.6800000000122
aF563.8400000000122
aF564.4400000000122
aF564.6800000000122
aF564.8400000000122
aF565.4400000000122
aF566.0400000000122
aF566.6400000000123
aF567.2400000000123
aF567.4000000000123
aF567.4000000000123
aF568.0000000000123
aF568.0000000000123
aF568.6000000000123
aF568.7600000000123
aF568.7600000000123
aF569.3600000000123
aF569.3600000000123
aF569.9600000000123
aF570.5600000000123
aF571.1600000000124
aF571.4000000000124
aF571.6400000000124
aF571.8800000000124
aF572.0400000000124
aF572.2000000000123
aF572.8000000000123
aF572.9600000000123
aF572.9600000000123
aF573.5600000000123
aF574.1600000000124
aF574.4000000000124
aF574.5600000000123
aF575.1600000000124
aF575.7600000000124
aF576.3600000000124
aF576.9600000000124
aF576.9600000000124
aF577.2000000000124
aF577.8000000000125
aF579.2000000000124
aF579.3600000000124
aF579.3600000000124
aF579.5200000000124
aF579.6800000000123
aF579.8400000000123
aF580.0000000000123
aF580.2400000000123
aF580.4800000000123
aF580.7200000000123
aF580.8800000000123
aF581.0400000000122
aF581.6400000000123
aF581.8000000000122
aF581.9600000000122
aF582.2000000000122
aF582.4400000000122
aF582.6800000000122
aF582.8400000000122
aF583.0000000000122
aF583.1600000000121
aF583.4000000000121
aF583.6400000000122
aF583.8800000000122
aF584.0400000000121
aF584.0400000000121
aF584.2000000000121
aF584.4400000000121
aF584.6000000000121
aF584.760000000012
aF584.920000000012
aF585.080000000012
aF585.680000000012
aF586.280000000012
aF586.440000000012
aF586.440000000012
aF586.440000000012
aF586.440000000012
aF586.440000000012
aF586.440000000012
aF586.600000000012
aF587.200000000012
aF587.360000000012
aF587.5200000000119
aF587.7600000000119
aF587.9200000000119
aF588.0800000000119
aF588.0800000000119
aF588.2400000000118
aF588.2400000000118
aF588.2400000000118
aF588.2400000000118
aF588.4800000000118
aF588.7200000000119
aF588.9600000000119
aF589.2000000000119
aF589.4400000000119
aF589.6800000000119
aF589.9200000000119
aF590.1600000000119
aF590.3200000000119
aF586.5200000000119
aF586.6800000000119
aF586.8400000000119
aF587.0000000000118
aF587.6000000000118
aF588.2000000000119
aF588.8000000000119
aF588.8000000000119
aF589.4000000000119
aF589.4000000000119
aF590.0000000000119
aF590.0000000000119
aF590.600000000012
aF590.840000000012
aF591.0000000000119
aF591.600000000012
aF591.600000000012
aF592.200000000012
aF592.440000000012
aF593.040000000012
aF593.280000000012
aF593.880000000012
aF594.120000000012
aF594.3600000000121
aF594.520000000012
aF594.760000000012
aF594.920000000012
aF594.920000000012
aF595.160000000012
aF595.400000000012
aF595.640000000012
aF595.800000000012
aF595.960000000012
aF595.960000000012
aF596.200000000012
aF596.440000000012
aF596.600000000012
aF596.840000000012
aF597.0000000000119
aF597.600000000012
aF599.0000000000119
aF600.4000000000119
aF601.8000000000119
aF601.9600000000119
aF601.9600000000119
aF602.5600000000119
aF602.5600000000119
aF603.1600000000119
aF603.4000000000119
aF604.0000000000119
aF604.600000000012
aF604.7600000000119
aF604.9200000000119
aF605.0800000000119
aF605.2400000000118
aF605.4000000000118
aF605.5600000000118
aF605.7200000000117
aF605.8800000000117
aF606.4800000000117
aF607.0800000000118
aF607.0800000000118
aF607.6800000000118
aF607.9200000000118
aF608.0800000000118
aF608.6800000000118
aF608.6800000000118
aF609.2800000000118
aF609.5200000000118
aF609.7600000000118
aF610.0000000000118
aF610.2400000000118
aF610.4800000000118
aF610.7200000000119
aF611.3200000000119
aF611.9200000000119
aF612.0800000000119
aF612.6800000000119
aF612.8400000000119
aF613.0000000000118
aF613.1600000000118
aF613.4000000000118
aF613.6400000000118
aF614.2400000000118
aF614.8400000000119
aF615.4400000000119
aF616.0400000000119
aF616.6400000000119
aF617.240000000012
aF617.840000000012
aF618.440000000012
aF618.680000000012
aF618.920000000012
aF619.160000000012
aF619.400000000012
aF619.640000000012
aF619.880000000012
aF620.120000000012
aF620.3600000000121
aF620.520000000012
aF620.680000000012
aF620.840000000012
aF621.080000000012
aF621.320000000012
aF621.560000000012
aF621.720000000012
aF621.8800000000119
aF622.480000000012
aF623.080000000012
aF623.240000000012
aF623.4000000000119
aF623.5600000000119
aF624.1600000000119
aF624.7600000000119
aF625.0000000000119
aF625.240000000012
aF625.480000000012
aF625.720000000012
aF625.960000000012
aF626.1200000000119
aF626.720000000012
aF626.960000000012
aF627.560000000012
aF628.160000000012
aF628.760000000012
aF629.3600000000121
aF629.9600000000121
aF630.5600000000121
aF631.1600000000121
aF627.3600000000122
aF627.5200000000121
aF628.1200000000122
aF628.7200000000122
aF628.8800000000122
aF629.0400000000121
aF629.6400000000122
aF630.2400000000122
aF630.8400000000122
aF631.4400000000122
aF632.0400000000122
aF632.2000000000122
aF632.8000000000122
aF632.8000000000122
aF633.4000000000123
aF633.4000000000123
aF634.0000000000123
aF634.0000000000123
aF634.6000000000123
aF634.6000000000123
aF635.2000000000123
aF635.2000000000123
aF635.8000000000123
aF636.4000000000124
aF636.4000000000124
aF637.0000000000124
aF637.6000000000124
aF638.2000000000124
aF638.8000000000125
aF639.4000000000125
aF640.0000000000125
aF640.6000000000125
aF641.2000000000126
aF641.8000000000126
aF642.0400000000126
aF642.2800000000126
aF642.5200000000126
aF642.6800000000126
aF642.8400000000125
aF643.0000000000125
aF643.1600000000125
aF643.7600000000125
aF643.9200000000125
aF644.0800000000124
aF644.6800000000125
aF644.8400000000124
aF645.4400000000124
aF646.0400000000125
aF647.4400000000124
aF648.8400000000124
aF650.2400000000124
aF650.4000000000124
aF650.5600000000123
aF650.7200000000123
aF650.8800000000123
aF651.4800000000123
aF651.6400000000123
aF651.8000000000122
aF651.9600000000122
aF652.1200000000122
aF652.2800000000121
aF652.8800000000122
aF653.1200000000122
aF653.2800000000121
aF653.4400000000121
aF653.6000000000121
aF653.760000000012
aF654.3600000000121
aF654.9600000000121
aF655.120000000012
aF655.7200000000121
aF655.880000000012
aF656.040000000012
aF656.200000000012
aF656.360000000012
aF656.960000000012
aF657.560000000012
aF657.720000000012
aF658.320000000012
aF658.920000000012
aF659.080000000012
aF659.240000000012
aF659.4000000000119
aF659.5600000000119
aF660.1600000000119
aF660.7600000000119
aF661.360000000012
aF661.960000000012
aF662.560000000012
aF662.560000000012
aF663.160000000012
aF663.760000000012
aF664.3600000000121
aF664.9600000000121
aF665.2000000000121
aF665.4400000000121
aF665.6800000000121
aF665.8400000000121
aF666.000000000012
aF666.000000000012
aF666.160000000012
aF666.320000000012
aF666.920000000012
aF666.920000000012
aF667.520000000012
aF667.520000000012
aF668.120000000012
aF668.3600000000121
aF668.520000000012
aF669.120000000012
aF669.120000000012
aF669.7200000000121
aF669.7200000000121
aF670.3200000000121
aF670.4800000000121
aF671.0800000000121
aF671.2400000000121
aF671.400000000012
aF671.400000000012
aF671.560000000012
aF671.800000000012
aF672.040000000012
aF672.640000000012
aF673.2400000000121
aF673.8400000000121
aF674.4400000000121
aF675.0400000000121
aF675.6400000000122
aF676.2400000000122
aF676.8400000000122
aF677.4400000000122
aF678.0400000000122
aF678.6400000000123
aF679.2400000000123
aF679.8400000000123
aF680.4400000000123
aF680.6800000000123
aF680.9200000000124
aF681.1600000000124
aF681.4000000000124
aF681.6400000000124
aF681.8000000000123
aF682.4000000000124
aF682.4000000000124
aF683.0000000000124
aF683.0000000000124
aF683.6000000000124
aF683.6000000000124
aF684.2000000000124
aF684.2000000000124
aF684.8000000000125
aF684.8000000000125
aF685.4000000000125
aF685.4000000000125
aF686.0000000000125
aF686.0000000000125
aF686.6000000000125
aF686.6000000000125
aF687.2000000000126
aF687.3600000000125
aF687.5200000000125
aF687.5200000000125
aF687.6800000000125
aF687.9200000000125
aF688.1600000000125
aF688.4000000000125
aF688.5600000000125
aF688.7200000000124
aF689.3200000000124
aF689.5600000000125
aF689.8000000000125
aF689.9600000000124
aF690.5600000000125
aF690.5600000000125
aF691.1600000000125
aF691.1600000000125
aF691.7600000000125
aF691.7600000000125
aF692.3600000000125
aF692.9600000000125
aF693.1200000000125
aF693.2800000000125
aF693.4400000000124
aF693.6000000000124
aF693.7600000000124
aF693.9200000000124
aF694.5200000000124
aF695.1200000000124
aF695.1200000000124
aF695.7200000000124
aF695.8800000000124
aF696.4800000000124
aF697.0800000000124
aF697.6800000000125
aF698.2800000000125
aF698.8800000000125
aF699.1200000000125
aF699.2800000000125
aF699.8800000000125
aF701.2800000000125
aF702.6800000000125
aF703.2800000000125
aF703.4400000000124
aF703.4400000000124
aF703.6000000000124
aF704.2000000000124
aF704.2000000000124
aF704.8000000000125
aF704.9600000000124
aF705.5600000000125
aF705.7200000000124
aF705.8800000000124
aF706.4800000000124
aF707.0800000000124
aF707.2400000000124
aF707.8400000000124
aF707.8400000000124
aF708.4400000000124
aF708.4400000000124
aF709.0400000000125
aF709.6400000000125
aF709.6400000000125
aF710.2400000000125
aF710.4000000000125
aF711.0000000000125
aF711.1600000000125
aF711.7600000000125
aF711.9200000000125
aF712.5200000000125
aF713.1200000000125
aF713.7200000000125
aF713.8800000000125
aF714.4800000000125
aF714.4800000000125
aF715.0800000000125
aF715.6800000000126
aF715.8400000000125
aF716.4400000000126
aF716.4400000000126
aF717.0400000000126
aF717.0400000000126
aF717.6400000000126
aF717.8000000000126
aF717.8000000000126
aF718.4000000000126
aF718.4000000000126
aF719.0000000000126
aF719.0000000000126
aF719.6000000000126
aF719.6000000000126
aF720.2000000000127
aF720.2000000000127
aF720.8000000000127
aF720.8000000000127
aF721.4000000000127
aF721.4000000000127
aF722.0000000000127
aF722.1600000000127
aF722.1600000000127
aF722.3200000000127
aF722.9200000000127
aF722.9200000000127
aF723.5200000000127
aF723.5200000000127
aF724.1200000000127
aF724.2800000000127
aF724.4400000000127
aF725.0400000000127
aF725.6400000000127
aF725.8000000000127
aF725.9600000000127
aF726.1200000000126
aF726.7200000000126
aF726.7200000000126
aF727.3200000000127
aF727.9200000000127
aF728.0800000000127
aF728.2400000000126
aF728.4000000000126
aF729.0000000000126
aF729.1600000000126
aF729.7600000000126
aF730.3600000000126
aF730.5200000000126
aF731.1200000000126
aF731.2800000000126
aF731.4400000000126
aF732.0400000000126
aF732.2000000000126
aF732.3600000000125
aF732.5200000000125
aF733.1200000000125
aF733.2800000000125
aF733.8800000000125
aF734.1200000000125
aF734.2800000000125
aF734.8800000000125
aF735.4800000000125
aF735.7200000000125
aF735.9600000000125
aF736.1200000000125
aF736.7200000000125
aF737.3200000000126
aF737.4800000000125
aF738.0800000000125
aF738.2400000000125
aF738.4800000000125
aF739.0800000000125
aF739.6800000000126
aF740.2800000000126
aF740.8800000000126
aF741.4800000000126
aF741.7200000000126
aF741.9600000000127
aF742.2000000000127
aF742.4400000000127
aF742.6000000000126
aF743.2000000000127
aF743.8000000000127
aF743.8000000000127
aF744.4000000000127
aF744.5600000000127
aF745.1600000000127
aF745.3200000000127
aF745.9200000000127
aF746.0800000000127
aF746.2400000000126
aF746.8400000000127
aF747.4400000000127
aF747.6000000000126
aF748.2000000000127
aF748.3600000000126
aF748.9600000000127
aF749.1200000000126
aF749.7200000000126
aF749.7200000000126
aF750.3200000000127
aF750.4800000000126
aF750.6400000000126
aF751.2400000000126
aF751.4000000000126
aF752.0000000000126
aF752.1600000000126
aF752.3200000000126
aF752.9200000000126
aF753.5200000000126
aF754.1200000000126
aF754.3600000000126
aF754.6000000000126
aF754.8400000000127
aF755.0000000000126
aF755.0000000000126
aF755.1600000000126
aF755.7600000000126
aF755.9200000000126
aF756.0800000000125
aF756.6800000000126
aF757.2800000000126
aF757.5200000000126
aF758.1200000000126
aF758.3600000000126
aF758.9600000000127
aF759.2000000000127
aF759.4400000000127
aF759.6800000000127
aF759.9200000000127
aF760.1600000000127
aF760.3200000000127
aF760.9200000000127
aF761.5200000000127
aF761.6800000000127
aF761.6800000000127
aF761.9200000000127
aF762.5200000000127
aF763.1200000000127
aF763.7200000000128
aF764.3200000000128
aF764.9200000000128
aF765.5200000000128
aF766.1200000000129
aF766.7200000000129
aF767.3200000000129
aF767.9200000000129
aF768.1600000000129
aF768.4000000000129
aF768.640000000013
aF768.880000000013
aF769.120000000013
aF769.360000000013
aF769.600000000013
aF769.760000000013
aF770.360000000013
aF770.960000000013
aF771.200000000013
aF771.360000000013
aF771.5200000000129
aF771.6800000000129
aF771.8400000000129
aF772.4400000000129
aF772.4400000000129
aF773.0400000000129
aF773.640000000013
aF774.240000000013
aF774.840000000013
aF775.440000000013
aF775.680000000013
aF775.920000000013
aF776.160000000013
aF776.400000000013
aF776.6400000000131
aF776.8800000000131
aF777.040000000013
aF777.200000000013
aF777.800000000013
aF778.400000000013
aF778.400000000013
aF779.0000000000131
aF779.0000000000131
aF779.6000000000131
aF780.2000000000131
aF780.3600000000131
aF780.9600000000131
aF780.9600000000131
aF781.1200000000131
aF781.7200000000131
aF782.3200000000131
aF782.4800000000131
aF783.0800000000131
aF783.6800000000131
aF783.8400000000131
aF784.4400000000131
aF785.0400000000132
aF785.2000000000131
aF785.8000000000131
aF785.9600000000131
aF785.9600000000131
aF786.1200000000131
aF786.7200000000131
aF786.9600000000131
aF787.1200000000131
aF787.7200000000131
aF787.7200000000131
aF788.3200000000131
aF788.3200000000131
aF788.9200000000131
aF789.0800000000131
aF789.0800000000131
aF789.6800000000131
aF790.2800000000132
aF790.5200000000132
aF790.7600000000132
aF791.0000000000132
aF791.2400000000132
aF791.4000000000132
aF792.0000000000132
aF792.6000000000132
aF793.2000000000132
aF793.8000000000133
aF794.4000000000133
aF794.5600000000132
aF795.1600000000133
aF795.7600000000133
aF797.1600000000133
aF798.5600000000132
aF798.8000000000133
aF798.9600000000132
aF799.1200000000132
aF799.7200000000132
aF800.3200000000132
aF800.4800000000132
aF800.6400000000132
aF800.8000000000131
aF801.4000000000132
aF802.0000000000132
aF802.1600000000132
aF802.7600000000132
aF802.9200000000131
aF802.9200000000131
aF803.5200000000132
aF804.1200000000132
aF804.7200000000132
aF804.7200000000132
aF805.3200000000132
aF805.9200000000133
aF806.1600000000133
aF806.4000000000133
aF806.6400000000133
aF806.8000000000133
aF806.8000000000133
aF807.4000000000133
aF807.4000000000133
aF808.0000000000133
aF808.0000000000133
aF808.6000000000133
aF809.2000000000133
aF809.2000000000133
aF809.8000000000134
aF809.8000000000134
aF810.4000000000134
aF810.4000000000134
aF811.0000000000134
aF811.0000000000134
aF811.6000000000134
aF811.6000000000134
aF812.2000000000135
aF812.2000000000135
aF812.8000000000135
aF812.8000000000135
aF813.4000000000135
aF814.0000000000135
aF814.6000000000136
aF815.2000000000136
aF815.8000000000136
aF816.4000000000136
aF817.0000000000136
aF817.1600000000136
aF817.3200000000136
aF817.9200000000136
aF818.5200000000136
aF818.6800000000136
aF819.2800000000136
aF819.4400000000136
aF819.6000000000136
aF819.7600000000135
aF820.3600000000135
aF820.9600000000136
aF821.5600000000136
aF821.8000000000136
aF821.9600000000136
aF822.2000000000136
aF822.3600000000135
aF822.5200000000135
aF822.6800000000135
aF823.2800000000135
aF823.4400000000135
aF823.6000000000134
aF823.7600000000134
aF824.3600000000134
aF824.5200000000134
aF825.1200000000134
aF825.7200000000134
aF825.7200000000134
aF826.3200000000135
aF826.4800000000134
aF826.6400000000134
aF826.8000000000134
aF826.9600000000133
aF827.1200000000133
aF827.2800000000133
aF827.4400000000132
aF828.0400000000133
aF828.2000000000132
aF828.8000000000133
aF828.8000000000133
aF829.4000000000133
aF829.4000000000133
aF830.0000000000133
aF830.0000000000133
aF830.6000000000133
aF830.6000000000133
aF831.2000000000133
aF831.4400000000134
aF832.0400000000134
aF832.2800000000134
aF832.5200000000134
aF832.7600000000134
aF833.3600000000134
aF833.9600000000135
aF834.5600000000135
aF835.1600000000135
aF835.7600000000135
aF836.3600000000135
aF836.9600000000136
aF837.5600000000136
aF838.1600000000136
aF838.7600000000136
aF839.3600000000137
aF839.9600000000137
aF840.5600000000137
aF841.1600000000137
aF841.7600000000137
aF842.3600000000138
aF842.9600000000138
aF843.5600000000138
aF843.8000000000138
aF844.0400000000138
aF844.2800000000138
aF844.5200000000139
aF844.7600000000139
aF845.0000000000139
aF845.1600000000138
aF845.4000000000138
aF845.5600000000138
aF845.8000000000138
aF845.9600000000138
aF846.2000000000138
aF846.4400000000138
aF846.6800000000138
aF846.8400000000138
aF847.0800000000138
aF847.3200000000138
a.