(lp0
I0
aF0.6666666666666667
aF1.3333333333333335
aF2.0
aF2.666666666666667
aF3.333333333333334
aF4.000000000000001
aF4.666666666666668
aF5.333333333333335
aF6.000000000000002
aF6.666666666666669
aF7.333333333333336
aF8.16666666666667
aF8.833333333333336
aF9.66666666666667
aF10.333333333333336
aF11.000000000000002
aF11.666666666666668
aF12.333333333333334
aF13.0
aF13.666666666666666
aF14.333333333333332
aF14.999999999999998
aF15.666666666666664
aF16.333333333333332
aF17.0
aF17.666666666666668
aF18.333333333333336
aF19.000000000000004
aF19.66666666666667
aF20.33333333333334
aF21.000000000000007
aF21.666666666666675
aF22.333333333333343
aF23.166666666666675
aF23.833333333333343
aF24.50000000000001
aF25.16666666666668
aF26.00000000000001
aF26.66666666666668
aF27.333333333333346
aF28.000000000000014
aF28.666666666666682
aF29.33333333333335
aF30.000000000000018
aF30.666666666666686
aF31.333333333333353
aF32.00000000000002
aF32.666666666666686
aF33.33333333333335
aF34.000000000000014
aF34.66666666666668
aF35.33333333333334
aF36.00000000000001
aF36.66666666666667
aF37.333333333333336
aF38.0
aF38.666666666666664
aF39.33333333333333
aF39.99999999999999
aF40.66666666666666
aF41.33333333333332
aF41.999999999999986
aF42.66666666666665
aF43.333333333333314
aF43.99999999999998
aF44.66666666666664
aF45.33333333333331
aF45.99999999999997
aF46.666666666666636
aF47.3333333333333
aF47.999999999999964
aF48.66666666666663
aF49.33333333333329
aF49.99999999999996
aF50.66666666666662
aF51.333333333333286
aF51.99999999999995
aF52.666666666666615
aF53.33333333333328
aF53.99999999999994
aF54.66666666666661
aF55.33333333333327
aF55.999999999999936
aF56.6666666666666
aF57.333333333333265
aF57.99999999999993
aF58.66666666666659
aF59.33333333333326
aF59.99999999999992
aF60.666666666666586
aF61.33333333333325
aF62.166666666666586
aF62.83333333333325
aF63.499999999999915
aF64.33333333333324
aF64.99999999999991
aF65.66666666666659
aF66.33333333333326
aF66.99999999999993
aF67.6666666666666
aF68.33333333333327
aF68.99999999999994
aF69.66666666666661
aF70.33333333333329
aF70.99999999999996
aF71.66666666666663
aF72.3333333333333
aF72.99999999999997
aF73.66666666666664
aF74.33333333333331
aF74.99999999999999
aF75.66666666666666
aF76.33333333333333
aF77.0
aF77.66666666666667
aF78.33333333333334
aF79.00000000000001
aF79.66666666666669
aF80.33333333333336
aF81.16666666666669
aF81.83333333333336
aF82.50000000000003
aF83.33333333333336
aF84.00000000000003
aF84.6666666666667
aF85.33333333333337
aF86.00000000000004
aF86.66666666666671
aF87.33333333333339
aF88.00000000000006
aF88.66666666666673
aF89.3333333333334
aF90.00000000000007
aF90.66666666666674
aF91.33333333333341
aF92.00000000000009
aF92.66666666666676
aF93.33333333333343
aF94.0000000000001
aF94.66666666666677
aF95.33333333333344
aF96.00000000000011
aF96.66666666666679
aF97.33333333333346
aF98.00000000000013
aF98.6666666666668
aF99.33333333333347
aF100.00000000000014
aF100.66666666666681
aF101.33333333333348
aF102.00000000000016
aF102.66666666666683
aF103.3333333333335
aF104.00000000000017
aF104.66666666666684
aF105.33333333333351
aF106.00000000000018
aF106.66666666666686
aF107.33333333333353
aF108.0000000000002
aF108.83333333333353
aF109.5000000000002
aF110.16666666666687
aF111.0000000000002
aF111.66666666666687
aF112.33333333333354
aF113.00000000000021
aF113.66666666666688
aF114.33333333333356
aF115.00000000000023
aF115.6666666666669
aF116.33333333333357
aF117.00000000000024
aF117.66666666666691
aF118.33333333333358
aF119.00000000000026
aF119.66666666666693
aF120.3333333333336
aF121.00000000000027
aF121.66666666666694
aF122.33333333333361
aF123.00000000000028
aF123.66666666666696
aF124.33333333333363
aF125.0000000000003
aF125.66666666666697
aF126.33333333333364
aF127.00000000000031
aF127.66666666666698
aF128.33333333333366
aF129.0000000000003
aF129.66666666666697
aF130.33333333333363
aF131.00000000000028
aF131.66666666666694
aF132.3333333333336
aF133.00000000000026
aF133.6666666666669
aF134.33333333333357
aF135.1666666666669
aI0
aF0.24
aF0.3999999999999999
aF0.5599999999999998
aF0.7199999999999998
aF0.8799999999999997
aF1.0399999999999996
aF1.2799999999999996
aF1.5199999999999996
aF1.7599999999999996
aF1.9999999999999996
aF2.2399999999999993
aF2.4799999999999995
aF2.7199999999999998
aF2.96
aF3.12
aF3.2800000000000002
aF3.4400000000000004
aF3.6000000000000005
aF3.7600000000000007
aF4.360000000000001
a.